(dp0
S'ner'
p1
((dp2
S'B-NUM'
p3
I3
sS'I-B-O'
p4
I10
sS'I-B-L'
p5
I16
sS'I-B-D'
p6
I14
sS'B-ORD'
p7
I12
sS'B-ORG'
p8
I5
sS'I-B-N'
p9
I13
sS'I-B-P'
p10
I8
sVO
p11
I2
sS'I-B-M'
p12
I9
sS'B-MIS'
p13
I4
sS'<pad>'
p14
I1
sS'B-PER'
p15
I7
sS'B-DUR'
p16
I15
sS'B-DAT'
p17
I6
sS'B-LOC'
p18
I11
sS'<unk>'
p19
I0
s(lp20
g19
ag14
ag11
ag3
ag13
ag8
ag17
ag15
ag10
ag12
ag4
ag18
ag7
ag9
ag6
ag16
ag5
atp21
sS'relpos'
p22
((dp23
I0
I2
sI1
I3
sI2
I9
sI3
I11
sI4
I13
sI5
I14
sI6
I16
sI7
I18
sI8
I20
sI9
I22
sI10
I24
sI11
I26
sI12
I29
sI13
I30
sI14
I33
sI15
I35
sI16
I37
sI17
I39
sI18
I41
sI19
I43
sI20
I45
sI21
I47
sI22
I49
sI23
I51
sI24
I53
sI25
I55
sI26
I57
sI27
I59
sI28
I61
sI29
I63
sI30
I65
sI31
I67
sI32
I69
sI33
I71
sI34
I73
sI35
I75
sI36
I78
sI37
I80
sI38
I81
sI39
I83
sI40
I85
sI41
I87
sI42
I89
sI43
I91
sI44
I93
sI45
I94
sI46
I97
sI47
I99
sI48
I101
sI49
I103
sI50
I105
sI51
I107
sI52
I108
sI53
I109
sI54
I112
sI55
I113
sI56
I116
sI57
I120
sI58
I122
sI59
I123
sI60
I124
sI61
I128
sI62
I129
sI63
I130
sI64
I131
sI65
I135
sI66
I136
sI67
I138
sI68
I140
sI69
I141
sI70
I143
sI71
I145
sI72
I146
sI73
I147
sI74
I150
sI75
I151
sI76
I152
sI77
I154
sI78
I155
sI79
I156
sI80
I170
sI81
I171
sI82
I172
sI83
I173
sI84
I174
sI85
I175
sI86
I176
sI87
I177
sI88
I178
sI89
I179
sI90
I180
sI91
I184
sI92
I185
sI93
I186
sI94
I187
sI-55
I110
sg19
I0
sg14
I1
sI-94
I188
sI-93
I189
sI-92
I190
sI-91
I183
sI-90
I181
sI-89
I182
sI-88
I160
sI-87
I161
sI-86
I162
sI-85
I163
sI-84
I164
sI-83
I165
sI-82
I166
sI-81
I167
sI-80
I168
sI-79
I169
sI-78
I157
sI-77
I158
sI-76
I159
sI-75
I153
sI-74
I148
sI-73
I149
sI-72
I144
sI-71
I142
sI-70
I139
sI-69
I137
sI-68
I134
sI-67
I132
sI-66
I133
sI-65
I127
sI-64
I125
sI-63
I126
sI-62
I121
sI-61
I118
sI-60
I119
sI-59
I117
sI-58
I115
sI-57
I114
sI-56
I111
sI-1
I4
sI-54
I106
sI-53
I104
sI-52
I102
sI-51
I100
sI-50
I98
sI-49
I96
sI-48
I95
sI-47
I92
sI-46
I90
sI-45
I88
sI-44
I86
sI-43
I84
sI-42
I82
sI-41
I79
sI-40
I77
sI-39
I76
sI-38
I74
sI-37
I72
sI-36
I70
sI-35
I68
sI-34
I66
sI-33
I64
sI-32
I62
sI-31
I60
sI-30
I58
sI-29
I56
sI-28
I54
sI-27
I52
sI-26
I50
sI-25
I48
sI-24
I46
sI-23
I44
sI-22
I42
sI-21
I40
sI-20
I38
sI-19
I36
sI-18
I34
sI-17
I32
sI-16
I31
sI-15
I28
sI-14
I27
sI-13
I25
sI-12
I23
sI-11
I21
sI-10
I19
sI-9
I17
sI-8
I15
sI-7
I12
sI-6
I10
sI-5
I8
sI-4
I7
sI-3
I6
sI-2
I5
s(lp24
g19
ag14
aI0
aI1
aI-1
aI-2
aI-3
aI-4
aI-5
aI2
aI-6
aI3
aI-7
aI4
aI5
aI-8
aI6
aI-9
aI7
aI-10
aI8
aI-11
aI9
aI-12
aI10
aI-13
aI11
aI-14
aI-15
aI12
aI13
aI-16
aI-17
aI14
aI-18
aI15
aI-19
aI16
aI-20
aI17
aI-21
aI18
aI-22
aI19
aI-23
aI20
aI-24
aI21
aI-25
aI22
aI-26
aI23
aI-27
aI24
aI-28
aI25
aI-29
aI26
aI-30
aI27
aI-31
aI28
aI-32
aI29
aI-33
aI30
aI-34
aI31
aI-35
aI32
aI-36
aI33
aI-37
aI34
aI-38
aI35
aI-39
aI-40
aI36
aI-41
aI37
aI38
aI-42
aI39
aI-43
aI40
aI-44
aI41
aI-45
aI42
aI-46
aI43
aI-47
aI44
aI45
aI-48
aI-49
aI46
aI-50
aI47
aI-51
aI48
aI-52
aI49
aI-53
aI50
aI-54
aI51
aI52
aI53
aI-55
aI-56
aI54
aI55
aI-57
aI-58
aI56
aI-59
aI-61
aI-60
aI57
aI-62
aI58
aI59
aI60
aI-64
aI-63
aI-65
aI61
aI62
aI63
aI64
aI-67
aI-66
aI-68
aI65
aI66
aI-69
aI67
aI-70
aI68
aI69
aI-71
aI70
aI-72
aI71
aI72
aI73
aI-74
aI-73
aI74
aI75
aI76
aI-75
aI77
aI78
aI79
aI-78
aI-77
aI-76
aI-88
aI-87
aI-86
aI-85
aI-84
aI-83
aI-82
aI-81
aI-80
aI-79
aI80
aI81
aI82
aI83
aI84
aI85
aI86
aI87
aI88
aI89
aI90
aI-90
aI-89
aI-91
aI91
aI92
aI93
aI94
aI-94
aI-93
aI-92
atp25
sS'word'
p26
((dp27
Vlimited
p28
I962
sVsimilarity
p29
I444
sVdynamic
p30
I1368
sVcoordinations
p31
I2852
sVLaplacian
p32
I1276
sVfour
p33
I885
sVentropy
p34
I611
sV400GB
p35
I3311
sVconsists
p36
I1512
sVlexicalised
p37
I1964
sVlocalized
p38
I2853
sVpoorly
p39
I1965
sVrelationships
p40
I1784
sVwhose
p41
I793
sVStarting
p42
I3312
sVsegments
p43
I679
sVpresents
p44
I254
sVmediated
p45
I1966
sVUSRs
p46
I2394
sVAdditionally
p47
I2327
sVunder
p48
I580
sVontological
p49
I2854
sVSPG
p50
I2855
sVscf
p51
I1011
sVdownstream
p52
I2857
sVdesirable
p53
I2328
sVrise
p54
I1016
sVevery
p55
I612
sVGB
p56
I1967
sV,1993
p57
I1452
sVovercomes
p58
I2395
sVexperimentally
p59
I1785
sVAutomatic
p60
I2305
sVtagging
p61
I387
sVbelieved
p62
I2841
sVbasics
p63
I3269
sVClassification
p64
I2858
sVData
p65
I2859
sVreduplication
p66
I1857
sVnominals
p67
I3314
sVsolution
p68
I1230
sVEBMT
p69
I1580
sVviable
p70
I1913
sVPERSON
p71
I1581
sVvector
p72
I350
sVindices
p73
I1231
sVenhance
p74
I2234
sVenrollment
p75
I2860
sVestimations
p76
I1968
sVpragmatic
p77
I3315
sVconcise
p78
I1070
sVconsistent
p79
I2329
sVestimates
p80
I3316
sVdirect
p81
I1854
sVapproximation
p82
I1418
sVMax
p83
I1712
sVsecond
p84
I963
sVinvocations
p85
I2330
sVCollins
p86
I1414
sVimplemented
p87
I865
sVPolish
p88
I3308
sVcooperatively
p89
I2396
sVeven
p90
I678
sV10K
p91
I2135
sVerrors
p92
I388
sVReyle
p93
I2861
sVDiscourse
p94
I1920
sVInitially
p95
I2398
sVexactly
p96
I2332
sVzoological
p97
I1082
sVadhoc
p98
I1582
sVdecoding
p99
I976
sVoptimization
p100
I2862
sVabove
p101
I1771
sVthreading
p102
I2773
sVnew
p103
I87
sVconstruction
p104
I212
sVincreasing
p105
I1401
sVconsisting
p106
I1017
sVseeks
p107
I2786
sVagreement
p108
I460
sVsimultaneously
p109
I1583
sVbehavior
p110
I1482
sVnever
p111
I2400
sVhere
p112
I2863
sVreported
p113
I405
sVgranularity
p114
I2864
sVrepresented
p115
I1018
sVpath
p116
I3318
sV100
p117
I1972
sVdiagnostic
p118
I1643
sVeliciting
p119
I2865
sVinterpret
p120
I3319
sVobtained
p121
I214
sVproperty
p122
I2866
sVitems
p123
I399
sVstudy
p124
I509
sVSurprisingly
p125
I1855
sVreports
p126
I500
sVpermit
p127
I2235
sVmilitary
p128
I1046
sVadopting
p129
I2867
sVsuitable
p130
I332
sVchanges
p131
I566
sVSPR
p132
I2233
sVmutual
p133
I2868
sVappropriately
p134
I2869
sVdivide
p135
I1585
sVclassification
p136
I194
sVelaborated
p137
I1973
sVdiscontinuous
p138
I1233
sVexplained
p139
I2870
sVThree
p140
I2009
sVhighly
p141
I1047
sVpsychological
p142
I3320
sVAlso
p143
I3321
sVCTL
p144
I1180
sVEllipsis
p145
I753
sVcounts
p146
I2871
sVunit
p147
I2872
sVFinegrained
p148
I2146
sVexpressibility
p149
I2873
sVwould
p150
I481
sVmotivate
p151
I2402
sVnegative
p152
I1587
sVenriching
p153
I3137
sVmediate
p154
I2548
sVTAG
p155
I1513
sVcall
p156
I2404
sVtherefore
p157
I1210
sVm3
p158
I1588
sVtype
p159
I391
sVLandsbergen
p160
I2439
sVRecent
p161
I3221
sVseparated
p162
I2405
sVattractive
p163
I3323
sV71.0
p164
I2406
sVcoupled
p165
I3470
sVOccam
p166
I3324
sVsuccessful
p167
I203
sVbrings
p168
I2874
sVadjacency
p169
I1283
sVdisk
p170
I3325
sVit
p171
I57
sV99
p172
I712
sVphone
p173
I560
sVreversible
p174
I1632
sVexcellent
p175
I3327
sValigned
p176
I1211
sV97
p177
I2876
sV96
p178
I530
sV1991
p179
I2763
sVLTfor
p180
I2147
sV1993
p181
I1181
sV1992
p182
I2333
sVword
p183
I18
sV1994
p184
I1975
sVpermits
p185
I2979
sV1999
p186
I2408
sV1998
p187
I2237
sVwork
p188
I161
sVadvocacy
p189
I2409
sVtheories
p190
I536
sVEDR
p191
I3328
sVexhaustive
p192
I3159
sVconcepts
p193
I804
sVexceptions
p194
I2787
sVroot
p195
I822
sVexample
p196
I964
sVNOV93
p197
I2878
sVunmarked
p198
I2410
sVindicated
p199
I1277
sVgive
p200
I754
sVcited
p201
I1976
sVWizard
p202
I2411
sVorganized
p203
I2879
sVmissiles
p204
I3037
sVimplementations
p205
I1453
sVinvolve
p206
I1787
sVindicates
p207
I1514
sVsegmentations
p208
I1278
sVwant
p209
I2412
sVfeasible
p210
I2413
sVunordered
p211
I1590
sVworse
p212
I2880
sVLF
p213
I1515
sVend
p214
I1914
sVhoc
p215
I1454
sVsyntactic
p216
I86
sVprovide
p217
I351
sVverify
p218
I2306
sVJournal
p219
I1182
sVLM
p220
I834
sVfeature
p221
I93
sVONE
p222
I1279
sVmachine
p223
I98
sVhow
p224
I146
sVmethodology
p225
I687
sVweaknesses
p226
I3513
sVLR
p227
I1212
sVsignificance
p228
I510
sVanswer
p229
I345
sVordinary
p230
I3330
sVPrevious
p231
I2785
sVclassify
p232
I1516
sVA
p233
I122
sVclassifying
p234
I1977
sVabstraction
p235
I2881
sVdescription
p236
I929
sVreconciled
p237
I2882
sVafter
p238
I589
sVDialogue
p239
I2883
sVwrong
p240
I1915
sVpredicates
p241
I1280
sVminimizes
p242
I1978
sVparallel
p243
I264
sVtypes
p244
I168
sVAll
p245
I2238
sVattempt
p246
I2884
sVeffective
p247
I333
sVCFG
p248
I848
sVJapanese
p249
I325
sVhypotheses
p250
I1281
sVcomplexity
p251
I866
sValgorithms
p252
I501
sVcorrelation
p253
I943
sVoperate
p254
I3331
sVorder
p255
I184
sVfillers
p256
I3332
sVinterpreting
p257
I3333
sVoperations
p258
I1019
sVbelong
p259
I3563
sVinterpretation
p260
I416
sVfeedback
p261
I1517
sVover
p262
I233
sVbiomedical
p263
I2386
sVbitexts
p264
I1916
sVgrammaticality
p265
I680
sVthesis
p266
I1157
sVsynonymy
p267
I622
sVcaptions
p268
I2885
sVUnderstanding
p269
I3564
sVsuffix
p270
I1125
sVscoring
p271
I1112
sVdifference
p272
I3500
sVdirectional
p273
I1979
sVhighlights
p274
I1980
sVfix
p275
I1592
sV,
p276
I3
sVwriting
p277
I1788
sVbetter
p278
I275
sVproduction
p279
I2886
sVdifferently
p280
I876
sV400
p281
I1282
sVhidden
p282
I1020
sVstrength
p283
I1619
sVovercome
p284
I1981
sVmaximal
p285
I1789
sVthen
p286
I80
sVthem
p287
I599
sVcombination
p288
I944
sVfragment
p289
I1415
sVsimilar
p290
I456
sVmixtures
p291
I2444
sVMRR
p292
I3335
sVperspicuously
p293
I2445
sVeffects
p294
I1983
sVthey
p295
I1113
sVnested
p296
I2499
sVstructural
p297
I1790
sVrepresents
p298
I1593
sVgrammar
p299
I144
sVrandomized
p300
I3208
sVIndeed
p301
I3336
sVclassified
p302
I1944
sVFunctional
p303
I2889
sVscfs
p304
I1150
sVFour
p305
I511
sVcustomizable
p306
I3313
sVreasonable
p307
I2337
sVeach
p308
I126
sVacoustic
p309
I977
sVinterpolation
p310
I616
sVclassifies
p311
I3337
sVclassifier
p312
I329
sVassociative
p313
I2338
sVTesting
p314
I2573
sVfinancial
p315
I1284
sVproposing
p316
I2713
sVONTOSCORE
p317
I2891
sVseries
p318
I2892
sVprinciples
p319
I1114
sVcarry
p320
I2828
sVliterature
p321
I2319
sVSENSEVAL2
p322
I3338
sVcombining
p323
I1183
sVaids
p324
I1322
sVCorpus
p325
I1814
sV79.1
p326
I2418
sVextract
p327
I1184
sVarray
p328
I2500
sVprojections
p329
I1518
sVNLP
p330
I294
sVindependency
p331
I2894
sVnetwork
p332
I945
sVcognito
p333
I3339
sVrestricted
p334
I965
sVcrucial
p335
I849
sVcontent
p336
I1416
sVHMM
p337
I320
sVlaid
p338
I3340
sVadapt
p339
I2239
sVNLG
p340
I1519
sVcomprehensive
p341
I1596
sV-LRB-
p342
I14
sVnewly
p343
I1984
sVmillions
p344
I3341
sVindependence
p345
I2419
sVfoundation
p346
I3342
sVimported
p347
I3355
sVWord
p348
I1285
sVlinear
p349
I286
sVassociate
p350
I756
sVUniversity
p351
I2339
sVgiven
p352
I218
sVfree
p353
I234
sVstandard
p354
I491
sVboosting
p355
I1048
sVestimate
p356
I190
sVkit
p357
I2768
sVconform
p358
I2896
sVincorporates
p359
I277
sVSketch
p360
I1597
sVSummarisation
p361
I2420
sVto-English
p362
I946
sVcreated
p363
I781
sVNational
p364
I2421
sVmessages
p365
I809
sVpriorities
p366
I2897
sVHorn
p367
I1816
sVfilter
p368
I808
sV000
p369
I2898
sVincorporated
p370
I3343
sVattune
p371
I1757
sVonto
p372
I1393
sVAlignment
p373
I1986
sVuser
p374
I227
sVaffixations
p375
I1921
sVfeatures
p376
I63
sVrender
p377
I512
sVsynonymous
p378
I1858
sVencouraging
p379
I1917
sVrank
p380
I1455
sVOriented
p381
I2566
sVinstruct
p382
I2899
sVadopted
p383
I773
sVanother
p384
I1236
sVPorting
p385
I1599
sVelectronic
p386
I1073
sVillustrate
p387
I2423
sVannotated
p388
I653
sVactivities
p389
I2496
sVtop
p390
I1494
sVapproximately
p391
I2788
sVstack
p392
I2424
sVneeded
p393
I2340
sVrates
p394
I1987
sVobservations
p395
I1988
sVcorpus
p396
I33
sVsignature
p397
I2240
sVdamaging
p398
I3345
sVdiscussion
p399
I2900
sVenhancing
p400
I2902
sVpredictably
p401
I1456
sVtool
p402
I314
sVserve
p403
I1918
sVlower
p404
I672
sVformulate
p405
I1213
sVMaxent
p406
I2903
sVdistance
p407
I131
sVtarget
p408
I220
sVshowed
p409
I1919
sVlemmatize
p410
I1989
sVparticipated
p411
I364
sVtrec
p412
I2141
sVsegmenter
p413
I2631
sVtree
p414
I199
sVlikely
p415
I1417
sVtunable
p416
I1990
sVproject
p417
I327
sVmatter
p418
I2425
sVbigrams
p419
I1991
sVclasses
p420
I836
sVenables
p421
I705
sVacquisition
p422
I382
sVextracting
p423
I739
sVplan-ranker
p424
I2904
sVfashion
p425
I3346
sVabstracting
p426
I3347
sVexploring
p427
I3348
sVdisambiguation
p428
I417
sVmodern
p429
I3349
sV500,000
p430
I1992
sVraw
p431
I569
sVparsers
p432
I970
sVmanner
p433
I1130
sVsubordinate
p434
I1792
sVconventionally
p435
I2077
sVInstead
p436
I713
sVseem
p437
I1419
sVPDTB
p438
I1953
sVrelatively
p439
I740
sVThen
p440
I2342
sVestimated
p441
I1286
sVderivational
p442
I1131
sVconcrete
p443
I2047
sVDARPA
p444
I1492
sVlatter
p445
I2789
sVthat
p446
I10
sV-
p447
I132
sVPOS
p448
I917
sVoriented
p449
I1115
sVasymmetric
p450
I2230
sVfitting
p451
I1521
sVsubjects
p452
I1859
sVThey
p453
I3352
sVindexed
p454
I2907
sVeffectiveness
p455
I1770
sVcompleted
p456
I2908
sVBank
p457
I1602
sVGJW86
p458
I3353
sVacquire
p459
I1116
sVcapitalization
p460
I1603
sVthough
p461
I2909
sVOgden
p462
I889
sVobject
p463
I3354
sVtranslator
p464
I1604
sVextending
p465
I2015
sVinvolving
p466
I1237
sVlocality
p467
I3619
sVclaims
p468
I2343
sVphase
p469
I1049
sVcentering
p470
I1434
sVphonological
p471
I2790
sVsemiphone
p472
I3097
sVmotivators
p473
I2427
sVtreats
p474
I890
sVcalculated
p475
I2791
sVm
p476
I1037
sVinferred
p477
I1117
sVbracket
p478
I1607
sVprinciple
p479
I1522
sVvoting
p480
I1608
sVnotion
p481
I1793
sVincomplete
p482
I1287
sVperspective
p483
I2575
sVincorporate
p484
I581
sVselected
p485
I1232
sVMetagrammatical
p486
I1993
sVRM
p487
I3425
sVlyrics
p488
I513
sVlearner
p489
I3076
sVmeetings
p490
I2428
sVrandom
p491
I1039
sVspeedup
p492
I3356
sVsyntax
p493
I1420
sVattempts
p494
I1994
sVRapid
p495
I2911
sVconstituent
p496
I1118
sVkeywords
p497
I418
sVsubstituting
p498
I431
sVCKY
p499
I3357
sVUnderspecified
p500
I3358
sVpick
p501
I2429
sVjudges
p502
I1995
sVlatent
p503
I795
sVjust
p504
I2792
sVThereby
p505
I2430
sVimplementation
p506
I1185
sVsituations
p507
I2782
sVexplain
p508
I1794
sV87.6
p509
I2663
sVsalience
p510
I1610
sVrich
p511
I1369
sVintegrate
p512
I1021
sVadequate
p513
I947
sVdo
p514
I1421
sVmixture
p515
I1288
sVLSP
p516
I2399
sV10
p517
I3010
sVde
p518
I2914
sVstop
p519
I2915
sVscalable
p520
I3360
sVpreferred
p521
I1611
sVDRT
p522
I2938
sVWER
p523
I805
sV12
p524
I2916
sVGPSG
p525
I1796
sVreport
p526
I1132
sVX
p527
I2793
sVbotanical
p528
I993
sVReducing
p529
I3392
sVruns
p530
I2794
sVcontributes
p531
I1971
sVfields
p532
I1370
sVOver
p533
I1922
sVMaximization
p534
I2549
sVmethod
p535
I54
sVbag
p536
I1902
sVterabyte
p537
I3361
sVarchitecture
p538
I410
sVanalytical
p539
I1923
sVautomatic
p540
I224
sV5million
p541
I3362
sVidiosyncracies
p542
I1612
sVreference
p543
I346
sVInheritance
p544
I2432
sVtesting
p545
I871
sVtheorising
p546
I3363
sVconvey
p547
I3364
sVEllison
p548
I1924
sVdetection
p549
I699
sVresult
p550
I395
sVdiscussions
p551
I1239
sVJiang
p552
I3365
sVExisting
p553
I2919
sVoptimum
p554
I2344
sVCCG
p555
I2379
sVbest
p556
I162
sVtechniques
p557
I155
sVtransliteration
p558
I1404
sVRisk
p559
I1925
sVanalyze
p560
I2284
sVTrost
p561
I1996
sVconnective
p562
I1371
sVsites
p563
I3366
sVscore
p564
I582
sVdiscovers
p565
I1613
sVconceptual
p566
I796
sVdrawn
p567
I1372
sVEvaluations
p568
I3367
sVapproach
p569
I52
sVdiscovery
p570
I2345
sVwe
p571
I35
sVterms
p572
I105
sVextend
p573
I2921
sVnature
p574
I334
sVmodify
p575
I2922
sVTree
p576
I3368
sVhowever
p577
I1614
sVwh
p578
I1997
sVextent
p579
I1050
sVclues
p580
I2923
sVmodeling
p581
I266
sVpicking
p582
I1998
sVimprove
p583
I347
sVfaced
p584
I1152
sV1983
p585
I3280
sVplanner
p586
I1422
sVrefinement
p587
I1584
sVextracts
p588
I548
sVagainst
p589
I2765
sVlogic
p590
I654
sVoperating
p591
I1254
sVcontribution
p592
I758
sVargue
p593
I1926
sVadapted
p594
I891
sVpre
p595
I1999
sVGiven
p596
I1373
sVadvertisements
p597
I3369
sVto-word
p598
I1076
sVvast
p599
I3334
sVinitiative
p600
I1594
sVapplicability
p601
I2795
sVlinguistically
p602
I1214
sVpolynomial
p603
I2000
sVPustejovsky
p604
I3370
sVparallelise
p605
I2924
sVOleada
p606
I3143
sVlight
p607
I3634
sVideograms
p608
I892
sVengines
p609
I1374
sVbasis
p610
I682
sVmorphotactics
p611
I2346
sVthree
p612
I291
sVbeen
p613
I91
sV.
p614
I5
sVextraction
p615
I114
sVmuch
p616
I389
sVinterest
p617
I1862
sVbasic
p618
I700
sVexpected
p619
I2242
sVflexible
p620
I625
sVtopics
p621
I1617
sVlocation
p622
I1863
sVconversational
p623
I390
sVgraphical
p624
I2433
sVfamilies
p625
I2434
sVanchors
p626
I2925
sVefficacy
p627
I2435
sV1991a
p628
I2766
sVquantities
p629
I2001
sVSRH
p630
I2926
sVSRI
p631
I626
sVCF
p632
I1375
sVlocations
p633
I2436
sVcoherent
p634
I370
sV160
p635
I2927
sVapplied
p636
I549
sVformalization
p637
I1423
sVchunker
p638
I1798
sVn
p639
I492
sVlesser
p640
I2397
sVformatting
p641
I3372
sVapplies
p642
I2928
sVtreelet
p643
I2002
sVaid
p644
I2929
sVharvesting
p645
I1951
sVCorrection
p646
I3373
sVprocedure
p647
I193
sVseven
p648
I2767
sVconcordances
p649
I2437
sVencyclopedias
p650
I994
sVDividing
p651
I2003
sVOn
p652
I2640
sVGrosz
p653
I2005
sVargumental
p654
I2438
sVis
p655
I13
sVtoolkit
p656
I620
sViv
p657
I1077
sVii
p658
I426
sVcharacterize
p659
I2407
sVgrammars
p660
I269
sVil
p661
I528
sVin
p662
I9
sVcomparative
p663
I2347
sV20k
p664
I2348
sVif
p665
I295
sVgrown
p666
I1618
sVcontaining
p667
I1215
sVperform
p668
I1051
sVsuggest
p669
I1376
sVmake
p670
I152
sVpunctuation
p671
I514
sVGUIs
p672
I2931
sVadjectives
p673
I2441
sVsupertagging
p674
I2442
sVcomplex
p675
I432
sVpotentially
p676
I2932
sVharmony
p677
I2443
sVexhaustiveness
p678
I2416
sVavoids
p679
I1982
sVfiltered
p680
I893
sVseveral
p681
I482
sVinfeasible
p682
I2933
sVemphatic
p683
I3374
sVindependent
p684
I363
sVnumerical
p685
I1791
sVconversion
p686
I2508
sVhand
p687
I404
sVdeclarative
p688
I1133
sVcharacters
p689
I3375
sVi.
p690
I2006
sVovert
p691
I1620
sVtune
p692
I2935
sVmil
p693
I2936
sVscenario
p694
I2937
sVpreceeding
p695
I683
sVtelephone
p696
I2529
sVquantitative
p697
I2007
sVthe
p698
I2
sVparadigm
p699
I783
sVleft
p700
I2797
sVunified
p701
I2798
sVassembling
p702
I1022
sVEstonian
p703
I1621
sVproposed
p704
I181
sVsentence
p705
I77
sVinterrogatives
p706
I1153
sVpresume
p707
I3376
sVstarting
p708
I1852
sVassigned
p709
I2939
sVproposes
p710
I706
sVidentify
p711
I483
sVhuman
p712
I236
sVfacts
p713
I894
sVlexicalized
p714
I895
sVyet
p715
I1523
sVinstantiation
p716
I3377
sVprevious
p717
I290
sVadding
p718
I562
sVposes
p719
I2447
sVdialogues
p720
I2799
sVcandidate
p721
I725
sVinstance
p722
I2940
sVsimilarities
p723
I2307
sVregarded
p724
I2941
sVcharacter
p725
I232
sVevidences
p726
I1623
sVpassive
p727
I2008
sVtopical
p728
I2942
sVanimation
p729
I2448
sVaffinity
p730
I667
sVeasy
p731
I1927
sVhas
p732
I60
sVbaselines
p733
I2449
sVgave
p734
I995
sVBuilding
p735
I3379
sVdisambiguating
p736
I1290
sVgrounding
p737
I1457
sV4GB
p738
I3452
sVlexically
p739
I1799
sVadvances
p740
I2243
sVonline
p741
I3447
sVpossible
p742
I245
sVRoberts
p743
I2769
sVpossibly
p744
I2450
sVunification
p745
I1458
sVof-domain
p746
I949
sVprogresses
p747
I2010
sVadvanced
p748
I2349
sVoccurring
p749
I246
sVstrengths
p750
I3380
sVobvious
p751
I3598
sVcaseframe
p752
I3381
sVperforming
p753
I978
sVmanual
p754
I377
sV50
p755
I1240
sVvariant
p756
I2044
sVspecific
p757
I165
sVdesigning
p758
I3317
sVarbitrary
p759
I302
sVrarely
p760
I2943
sVFurther
p761
I1864
sVWarren
p762
I1625
sVright
p763
I1134
sVPAKTUS
p764
I1291
sVdeal
p765
I979
sVplausible
p766
I3213
sVsuccessfully
p767
I600
sVdeaf
p768
I2452
sVSystem
p769
I1052
sVunnecessary
p770
I3382
sVHK
p771
I172
sVMuch
p772
I3383
sV96.6
p773
I2800
sVtutorial
p774
I3272
sVembodied
p775
I1525
sVfor
p776
I11
sVestablish
p777
I1475
sVSCF
p778
I1800
sV/
p779
I1459
sVcontributing
p780
I1626
sVreranker
p781
I2944
sVasking
p782
I2308
sVBayes
p783
I1496
sVembodies
p784
I1078
sVunstable
p785
I1079
sVreadily
p786
I2453
sVencourages
p787
I2657
sVcore
p788
I591
sVmeanings
p789
I178
sVrepository
p790
I2945
sVpredicting
p791
I1627
sVNeal
p792
I3385
sVLFG
p793
I427
sVLeibler
p794
I2309
sVrelationship
p795
I1216
sVarchitectural
p796
I1292
sVsubstitution
p797
I2801
sVpost
p798
I806
sVpermitted
p799
I1774
sVFirst
p800
I1425
sVharmful
p801
I2454
sVbehaviors
p802
I3252
sVLexicon
p803
I2455
sVBREF
p804
I2946
sVcosts
p805
I2011
sVdistinct
p806
I543
sVNCA
p807
I1866
sVensure
p808
I2012
sVMPS
p809
I2013
sVefforts
p810
I2947
sVobservation
p811
I2662
sVslightly
p812
I759
sVautomatically
p813
I206
sVwildcards
p814
I3273
sVHong
p815
I1377
sVsummarisation
p816
I2948
sVdilemma
p817
I2014
sVKnowledge
p818
I1080
sVpresence
p819
I1297
sVsuccessive
p820
I2350
sVobtaining
p821
I1154
sVbound
p822
I1187
sVparsing
p823
I92
sVmultiply
p824
I1595
sVcascades
p825
I2949
sVKorean
p826
I211
sVannotating
p827
I2950
sVanaphora
p828
I797
sVmethods
p829
I150
sVunambiguous
p830
I2951
sVexisted
p831
I2952
sVcategorization
p832
I1801
sVcompression
p833
I628
sVabstractions
p834
I2953
sVTEA
p835
I3390
sVsupport
p836
I655
sVinitial
p837
I1119
sVapproximate
p838
I2913
sVProcessor
p839
I1906
sVnoting
p840
I2955
sVway
p841
I629
sVtriplets
p842
I2956
sVwas
p843
I529
sVAretz
p844
I2770
sVsynthesis
p845
I2016
sVhead
p846
I1868
sVLexical
p847
I2957
sVform
p848
I1432
sVoffer
p849
I1155
sVlaboratory
p850
I2245
sVbottlenecks
p851
I1653
sVremoves
p852
I2018
sVthesaurus
p853
I1426
sVencodes
p854
I2457
sVincorporation
p855
I851
sVdecoder
p856
I1135
sVMIT
p857
I3391
sVtrue
p858
I2019
sVpolysemous
p859
I66
sVtoolkits
p860
I648
sVExtraction
p861
I2959
sVCzech
p862
I873
sVassessment
p863
I2236
sVtrans
p864
I2960
sVmaximum
p865
I550
sVuntil
p866
I2961
sVformalising
p867
I2512
sVcatalyze
p868
I2020
sVstages
p869
I2819
sVautosegmental
p870
I2458
sg19
I0
sVadopt
p871
I3014
sVguesses
p872
I2021
sVResnik
p873
I2581
sVcomputing
p874
I2523
sVtrie
p875
I2965
sVSome
p876
I2323
sVconfigurational
p877
I1524
sVcovers
p878
I2401
sVevidence
p879
I668
sV''
p880
I551
sVexist
p881
I2966
sVto-tree
p882
I2963
sVdistributions
p883
I2967
sVcheck
p884
I2459
sVconstructed
p885
I563
sVDescription
p886
I2460
sVwordbreaks
p887
I2022
sVno
p888
I1053
sVFragment
p889
I2803
sVwhereas
p890
I741
sVwhen
p891
I215
sVreality
p892
I2461
sVgrammatical
p893
I159
sVcustomized
p894
I2374
sVinterested
p895
I2968
sVrole
p896
I1217
sVintuitive
p897
I3394
sVholding
p898
I1929
sVpapers
p899
I3395
sVtest
p900
I567
sVtie
p901
I3396
sVdevelopers
p902
I966
sVNIST
p903
I601
sVnode
p904
I2023
sVpermitting
p905
I1629
sV's
p906
I210
sVForm
p907
I2462
sVmodels
p908
I47
sVcorrected
p909
I2463
sVpreceding
p910
I950
sVdatabases
p911
I938
sVuniformly
p912
I896
sVupdate
p913
I2464
sVnods
p914
I2465
sVscores
p915
I1630
sVvariable
p916
I537
sVtransfers
p917
I1319
sVe/3
p918
I1631
sVidiosyncrasies
p919
I3205
sVfraction
p920
I3420
sVstops
p921
I3482
sVfaster
p922
I2466
sV98
p923
I1378
sVassume
p924
I1293
sVinterval
p925
I2467
sVmodules
p926
I383
sVtogether
p927
I1869
sVcohesion
p928
I2970
sVSecond
p929
I1870
sVColon
p930
I760
sVtime
p931
I222
sVserious
p932
I2024
sVVSM
p933
I461
sVn6
p934
I2565
sVsongs
p935
I3398
sVenhances
p936
I2592
sVconcept
p937
I406
sVchain
p938
I1633
sVrejoinder
p939
I1727
sVPlume
p940
I878
sVglobal
p941
I2469
sValternatives
p942
I2971
sVfocus
p943
I200
sVleads
p944
I3399
sVtrigram
p945
I1218
sVmanager
p946
I2972
sVsupplement
p947
I2025
sVcomputation
p948
I3274
sVmorphology
p949
I701
sVinvolved
p950
I3186
sV.01
p951
I2102
sVKullback
p952
I2310
sVdevoted
p953
I1081
sVrequested
p954
I3494
sVdimensionality
p955
I1294
sVdepend
p956
I1772
sVclarification
p957
I2351
sVgraph
p958
I372
sVtechnique
p959
I807
sVpassage
p960
I2973
sVenvironment
p961
I1803
sV0
p962
I2247
sVfinally
p963
I2470
sVunpleasant
p964
I2974
sVmarks
p965
I685
sVmust
p966
I1786
sVpredicate
p967
I2975
sVstring
p968
I149
sVadvantage
p969
I1023
sV1990
p970
I2877
sVSUMMAC
p971
I2352
sVemphasizes
p972
I1460
sVchoice
p973
I852
sV1995
p974
I2976
sVWH
p975
I3016
sVexact
p976
I1461
sVexpectations
p977
I2978
sVsubcategorization
p978
I454
sVAS
p979
I171
sVCoNLL
p980
I2026
sVlevel
p981
I259
sVClause
p982
I2471
sVposts
p983
I2248
sVKokugojiten
p984
I3401
sVstandards
p985
I3402
sVsolved
p986
I2804
sV97.9
p987
I2473
sVPTQ
p988
I3384
sVText
p989
I2510
sVperceptual
p990
I3403
sVupper
p991
I2981
sVoccurrence
p992
I283
sVtrend
p993
I2805
sVmaximization
p994
I1872
sVprediction
p995
I1873
sVd
p996
I2451
sVcost
p997
I2474
sVaugment
p998
I3404
sVpatient
p999
I3571
sVCMU
p1000
I613
sVAssociations
p1001
I2612
sVappear
p1002
I2027
sVinflectional
p1003
I1930
sVuniform
p1004
I853
sVcurrent
p1005
I465
sVIntEx
p1006
I1874
sVsequential
p1007
I761
sVgoes
p1008
I897
sVshared
p1009
I996
sVAlong
p1010
I2983
sVboost
p1011
I1635
sVfilled
p1012
I2984
sVsupporting
p1013
I1526
sVdigitalization
p1014
I1636
sVmetarules
p1015
I2224
sVrealizations
p1016
I2476
sVunderstanding
p1017
I188
sVMu
p1018
I1637
sVgroups
p1019
I2028
sVEnglish
p1020
I55
sValone
p1021
I1379
sVre
p1022
I3071
sVanchoring
p1023
I3405
sVappears
p1024
I1804
sVbox
p1025
I1527
sVvectors
p1026
I967
sVcommonly
p1027
I2249
sVexploitation
p1028
I2985
sVMT
p1029
I308
sVineffective
p1030
I515
sVEntropy
p1031
I3406
sVdomains
p1032
I445
sVshifting
p1033
I3407
sVautomaton
p1034
I1463
sVstudies
p1035
I1876
sVgenuinely
p1036
I3408
sVtasks
p1037
I241
sVuseful
p1038
I414
sVconvolution
p1039
I1464
sVDOM
p1040
I3142
sVproblematic
p1041
I2638
sVmerely
p1042
I2986
sVexpletive
p1043
I531
sVWhen
p1044
I2807
sVDifferent
p1045
I2987
sVmarked
p1046
I2029
sVLanguages
p1047
I2030
sVMellon
p1048
I3449
sVflexibility
p1049
I3410
sVTherefore
p1050
I2478
sVinverses
p1051
I2479
sVConceptual
p1052
I2031
sVoperational
p1053
I1773
sVrelating
p1054
I2480
sVchallenging
p1055
I1497
sVhierarchically
p1056
I2250
sVHungarian
p1057
I1638
sVprove
p1058
I1427
sVpositive
p1059
I1877
sVpredictions
p1060
I2481
sVproperties
p1061
I1865
sVhandles
p1062
I1241
sVexplicitly
p1063
I1498
sVThat
p1064
I3411
sVmemory
p1065
I762
sVscope
p1066
I747
sVanalysing
p1067
I2648
sVselects
p1068
I997
sVtheoretical
p1069
I3412
sVThose
p1070
I2482
sVPropBank
p1071
I1711
sV``
p1072
I493
sVF
p1073
I494
sVThese
p1074
I539
sVoutputs
p1075
I1931
sVdistribution
p1076
I1639
sVclue
p1077
I3413
sVpolysemy
p1078
I2033
sVDependency
p1079
I2034
sVfar
p1080
I1867
sVRobust
p1081
I1605
sVcases
p1082
I2311
sVeffort
p1083
I1186
sVWordNet
p1084
I125
sVadverbials
p1085
I2484
sVvalued
p1086
I1714
sVGerman
p1087
I1380
sVavoiding
p1088
I1932
sVoriginally
p1089
I1878
sVstandalone
p1090
I2035
sVmodified
p1091
I2353
sVlabeled
p1092
I309
sVvalues
p1093
I2036
sVcan
p1094
I45
sVfollowing
p1095
I466
sVOur
p1096
I140
sVarrive
p1097
I624
sV80.5
p1098
I2486
sVnumbers
p1099
I887
sVgrained
p1100
I719
sVdedicated
p1101
I1428
sVstream
p1102
I2354
sV6.56
p1103
I2515
sVpredict
p1104
I1242
sVCriterionSM
p1105
I2038
sVarise
p1106
I2991
sVagent
p1107
I2808
sVsample
p1108
I1149
sVweighting
p1109
I1465
sg14
I1
sVincremental
p1110
I1528
sVperformed
p1111
I837
sVDutch
p1112
I707
sVoccur
p1113
I207
sVredundancy
p1114
I602
sVrequirements
p1115
I898
sVinheritance
p1116
I2487
sVdivided
p1117
I1102
sVof-speech
p1118
I951
sV1
p1119
I102
sVcriterion
p1120
I1055
sVSignificant
p1121
I3416
sVMDCC
p1122
I1726
sVparameter
p1123
I2993
sVdominance
p1124
I1898
sVproduct
p1125
I3417
sVexplores
p1126
I2489
sVmodal
p1127
I1956
sVhuge
p1128
I3418
sVmay
p1129
I270
sVquantified
p1130
I1529
sVWWER
p1131
I742
sVapplications
p1132
I138
sVproduce
p1133
I342
sVdesigned
p1134
I715
sVdate
p1135
I2994
sVsuch
p1136
I72
sVModel
p1137
I1136
sVdata
p1138
I81
sVannotation
p1139
I419
sVrecursive
p1140
I2772
sVruntime
p1141
I3388
sVnatural
p1142
I143
sVcorrelate
p1143
I1640
sVbeam
p1144
I3419
sVLA
p1145
I1530
sVexplicit
p1146
I998
sVGaussian
p1147
I1679
sVSources
p1148
I2875
sVones
p1149
I2995
sVso
p1150
I552
sVexpression
p1151
I3421
sVrepresentation
p1152
I191
sVembodying
p1153
I3469
sVtutoring
p1154
I230
sVtypical
p1155
I1024
sVtagged
p1156
I564
sVbreaking
p1157
I3087
sVconstituents
p1158
I1269
sVmainly
p1159
I2492
sVprimitive
p1160
I2809
sVentity
p1161
I1572
sVstructuring
p1162
I872
sVexperiments
p1163
I133
sVtagger
p1164
I570
sVstatistical
p1165
I100
sVdiffers
p1166
I863
sVstatements
p1167
I2039
sVstill
p1168
I3422
sVtendency
p1169
I3423
sVsupplemented
p1170
I900
sVderive
p1171
I1429
sVgroup
p1172
I3424
sVinteresting
p1173
I1641
sVfacility
p1174
I2456
sVLT
p1175
I1520
sVcoordinates
p1176
I2996
sVHaving
p1177
I2997
sVforms
p1178
I1188
sVKamp
p1179
I2253
sVUsing
p1180
I471
sVmain
p1181
I708
sVdeviant
p1182
I3426
sVcorrespondence
p1183
I2254
sVnon
p1184
I311
sVwithin
p1185
I260
sVinfluences
p1186
I2040
sVJAVELIN
p1187
I1549
sVmatches
p1188
I1025
sV100,000
p1189
I2041
sVreject
p1190
I3088
sVevolution
p1191
I3193
sVintroduce
p1192
I688
sVscaling
p1193
I3428
sVrecords
p1194
I1381
sVTopic
p1195
I2244
sVnot
p1196
I141
sVsuperset
p1197
I1300
sVdiscuss
p1198
I763
sVmaintaining
p1199
I1301
sVpossess
p1200
I2042
sVterm
p1201
I1430
sVlies
p1202
I3389
sVrepositories
p1203
I2494
sVLTAG
p1204
I2644
sVrealistic
p1205
I2811
sVMinimum
p1206
I1933
sVentirely
p1207
I1466
sVsuffixes
p1208
I1934
sVdomain
p1209
I108
sVweighted
p1210
I901
sVretrieve
p1211
I1531
sVsignificantly
p1212
I287
sVTUIT
p1213
I1935
sVconventions
p1214
I2255
sVRAINFORM
p1215
I1302
sVgaps
p1216
I1303
sVyear
p1217
I3430
sVet
p1218
I726
sVnaming
p1219
I2998
sVKong
p1220
I1382
sVrefined
p1221
I627
sVplans
p1222
I1476
sVshown
p1223
I281
sVciting
p1224
I3174
sVcontinuing
p1225
I3572
sVassessors
p1226
I2495
sVspace
p1227
I359
sVaspectual
p1228
I2999
sVincrease
p1229
I1879
sVNets
p1230
I1861
sVnominal
p1231
I968
sVimperative
p1232
I1642
sVdominate
p1233
I3000
sVcorrect
p1234
I312
sVshows
p1235
I412
sVinevitably
p1236
I3431
sVcreating
p1237
I2616
sVe.
p1238
I1970
sVtheory
p1239
I1304
sVG
p1240
I1026
sVList
p1241
I1477
sVmillion
p1242
I1071
sVmechanisms
p1243
I2256
sVpossibility
p1244
I2045
sVquite
p1245
I886
sVrecordings
p1246
I3432
sVdependencies
p1247
I798
sVadvantages
p1248
I1137
sVEither
p1249
I433
sVbesides
p1250
I1644
sVinductive
p1251
I3433
sVcard
p1252
I1645
sVapprox.
p1253
I3001
sVtraining
p1254
I88
sVderivation
p1255
I744
sVlanguage
p1256
I29
sVtransition
p1257
I2046
sVprogramming
p1258
I1807
sVHalliday
p1259
I3532
sVSign
p1260
I2497
sVturn
p1261
I3434
sVperson
p1262
I3351
sVplace
p1263
I1467
sVundesirable
p1264
I2048
sVCooperative
p1265
I3002
sVDuring
p1266
I2257
sVthink
p1267
I3435
sVfrequent
p1268
I1646
sVfirst
p1269
I279
sVintuition
p1270
I1647
sVreveals
p1271
I2061
sVspoken
p1272
I374
sVclause
p1273
I1383
sVvariables
p1274
I663
sVThere
p1275
I1648
sVsymbolic
p1276
I2498
sVrequirement
p1277
I2731
sVone
p1278
I103
sVtextual
p1279
I380
sVdirectly
p1280
I353
sVspecificity
p1281
I3003
sVgenerative
p1282
I764
sVmessage
p1283
I1235
sVopen
p1284
I50
sVsize
p1285
I1532
sVcity
p1286
I3004
sVlittle
p1287
I384
sVnecessarily
p1288
I3436
sVoperable
p1289
I3437
sVexists
p1290
I2049
sVpermutation
p1291
I3005
sVstructured
p1292
I1533
sVindicate
p1293
I2355
sVchecker
p1294
I1880
sV2
p1295
I89
sVdraft
p1296
I3006
sVrealization
p1297
I3438
sVSuch
p1298
I3439
sVstructures
p1299
I209
sVgives
p1300
I339
sVsummarization
p1301
I375
sVmining
p1302
I2501
sVNoun
p1303
I2502
sVinefficient
p1304
I3007
sVhub
p1305
I2050
sVtext.KDS
p1306
I1074
sVintenslonal
p1307
I1650
sVWikipedia
p1308
I2503
sVmemo
p1309
I2356
sVcontinuous
p1310
I1306
sVPDS
p1311
I3440
sVaccurately
p1312
I3441
sVbroadcast
p1313
I2504
sVIMP
p1314
I631
sVIMS
p1315
I3008
sVproficiency
p1316
I2744
sVSituation
p1317
I3442
sVrepresenting
p1318
I1307
sVthan
p1319
I90
sVsemantics
p1320
I583
sVexplanations
p1321
I2906
sVwide
p1322
I1795
sV13
p1323
I2506
sVtranslate
p1324
I2171
sV15
p1325
I1651
sV14
p1326
I2431
sVConferences
p1327
I3444
sVrequire
p1328
I2258
sVtransferred
p1329
I3445
sVtabular
p1330
I3509
sVfuture
p1331
I1308
sVwere
p1332
I561
sVand
p1333
I6
sVgenerality
p1334
I2052
sVcorrection
p1335
I784
sVargument
p1336
I1431
sVsumming
p1337
I2507
sVkatakana
p1338
I902
sVrecover
p1339
I1309
sVany
p1340
I265
sVDP
p1341
I3276
sVfoundered
p1342
I903
sVspeakers
p1343
I1424
sVoffering
p1344
I2017
sVShinmeikai
p1345
I3446
sVefficient
p1346
I745
sVtranscription
p1347
I1808
sVanswering
p1348
I451
sVideas
p1349
I785
sVnote
p1350
I1652
sVpotential
p1351
I657
sVtake
p1352
I969
sVposter
p1353
I2382
sVobjective
p1354
I799
sVperformance
p1355
I62
sVQuantifier
p1356
I3011
sVparaphrase
p1357
I343
sVObserving
p1358
I1083
sVchannel
p1359
I823
sVbegin
p1360
I3012
sVmultiple
p1361
I238
sVName
p1362
I1468
sVUnlike
p1363
I2357
sVnormal
p1364
I2053
sVtrack
p1365
I1469
sVTreeBank
p1366
I1937
sVSequences
p1367
I3013
sVNP-antecedents
p1368
I3448
sVEmpirical
p1369
I2054
sVMLP
p1370
I2509
sVwire
p1371
I2383
sVprinted
p1372
I1310
sVformulae
p1373
I1654
sVpair
p1374
I385
sVMarkov
p1375
I874
sVSTRAND
p1376
I2358
sVSR
p1377
I2980
sVsynonym
p1378
I2511
sVespecially
p1379
I3450
sVsurprising
p1380
I3277
sVconsidered
p1381
I1802
sVaverage
p1382
I727
sVLIMSI
p1383
I2962
sVInstances
p1384
I2055
sVtypically
p1385
I930
sVMemo
p1386
I3451
sVlaws
p1387
I2057
sVWeb
p1388
I473
sVlexicon
p1389
I225
sVshow
p1390
I85
sVworkshops
p1391
I3278
sVsynchronous
p1392
I1938
sVResearch
p1393
I2977
sVdiscovered
p1394
I2322
sVTopical
p1395
I2513
sVSystems
p1396
I2514
sVTest
p1397
I3017
sVorthographical
p1398
I3018
sVground
p1399
I1655
sVchronological
p1400
I2917
sVWe
p1401
I25
sVratio
p1402
I632
sVprincipled
p1403
I2417
sVPC
p1404
I2812
sVproportion
p1405
I3019
sVwritten
p1406
I850
sVRequestors
p1407
I3245
sVonly
p1408
I690
sVsentential
p1409
I1255
sVblack
p1410
I1534
sVequipped
p1411
I3022
sVinvocation
p1412
I2813
sVOptimality
p1413
I2814
sVOOV
p1414
I3268
sVMimo
p1415
I2815
sVApplied
p1416
I1656
sVranking
p1417
I373
sVcorrectly
p1418
I1385
sVviewpoint
p1419
I904
sVget
p1420
I899
sVmorphological
p1421
I328
sVexpectation
p1422
I3453
sVLarge
p1423
I3454
sVaim
p1424
I2796
sVnearly
p1425
I3455
sVprogress
p1426
I2259
sVconjunction
p1427
I1939
sVSimilar
p1428
I2516
sVreflexives
p1429
I2058
sVKruse
p1430
I2771
sVregarding
p1431
I905
sVreading
p1432
I2359
sVresource
p1433
I664
sVMethods
p1434
I2517
sVSemicolon
p1435
I765
sVrelied
p1436
I3146
sVoutperform
p1437
I553
sVyield
p1438
I1243
sVsummary
p1439
I502
sVcompositional
p1440
I714
sVvector-based
p1441
I3456
sVpredicted
p1442
I2060
sVmapped
p1443
I1940
sV6.3
p1444
I2518
sVwhere
p1445
I306
sVkernel
p1446
I656
sV12.5
p1447
I621
sVimposing
p1448
I1386
sVSpecifically
p1449
I1138
sVrelative
p1450
I516
sVnamely
p1451
I3279
sVcontains
p1452
I3023
sVconcern
p1453
I1657
sVfails
p1454
I2519
sVdetect
p1455
I1535
sVSaudi
p1456
I3136
sVcompounds
p1457
I1881
sVways
p1458
I980
sVreview
p1459
I2520
sVlexical
p1460
I65
sVdefinite
p1461
I2062
sVcommitments
p1462
I3024
sVlabel
p1463
I2521
sVboundaries
p1464
I1809
sV3
p1465
I182
sVrephrase
p1466
I2063
sVroots
p1467
I3025
sVbetween
p1468
I75
sVThai
p1469
I1244
sVpriming
p1470
I1856
sVacross
p1471
I633
sVinfrastructure
p1472
I1536
sVNatural
p1473
I573
sVlattices
p1474
I3542
sVspatially
p1475
I2477
sVcollocational
p1476
I3457
sVanalyzer
p1477
I1219
sVrevealed
p1478
I2846
sVEach
p1479
I1882
sVanalyzed
p1480
I1658
sVarticle
p1481
I854
sVPartee
p1482
I2065
sVacquiring
p1483
I875
sVInterdisciplinary
p1484
I2116
sVmany
p1485
I496
sVaccording
p1486
I1139
sVenabling
p1487
I1661
sVbakeoff
p1488
I365
sVs
p1489
I2816
sVThrough
p1490
I486
sVStatistical
p1491
I2817
sVLaboratory
p1492
I2774
sVshare
p1493
I3085
sVutterance
p1494
I474
sVcomes
p1495
I3458
sVamong
p1496
I540
sVforecasting
p1497
I3459
sVfiltering
p1498
I1057
sVoverview
p1499
I3460
sV9000
p1500
I3026
sVpos
p1501
I1248
sVPER
p1502
I1311
sVExpectation
p1503
I2595
sV60
p1504
I3461
sVexploit
p1505
I2066
sVlearning
p1506
I130
sVordered
p1507
I3578
sVMontague
p1508
I2335
sVcombines
p1509
I475
sVcombiner
p1510
I2522
sVsubmanifold
p1511
I1318
sVcapable
p1512
I999
sVBut
p1513
I3462
sVrelatedness
p1514
I1249
sVto-face
p1515
I2525
sVworkshop
p1516
I3463
sVcombined
p1517
I1000
sVlikewise
p1518
I3464
sVcollocation
p1519
I931
sVlinguistic
p1520
I223
sVprototype
p1521
I3029
sVto-Japanese
p1522
I1553
sVTiMBL
p1523
I1713
sVengine
p1524
I1001
sVdirection
p1525
I2526
sVcongruence
p1526
I2161
sVheuristics
p1527
I3466
sVgoing
p1528
I3021
sVformed
p1529
I1941
sVreadings
p1530
I2067
sVoffers
p1531
I3467
sVdramatic
p1532
I3468
sVexternal
p1533
I1032
sVstems
p1534
I3090
sVvagueness
p1535
I2818
sVcareful
p1536
I3030
sVirrelevant
p1537
I1659
sVformer
p1538
I3031
sVthose
p1539
I154
sVpilot
p1540
I3499
sVcase
p1541
I856
sVTo
p1542
I578
sVthese
p1543
I71
sVaccommodating
p1544
I2056
sVSPoT
p1545
I1387
sVengineering
p1546
I2285
sVprofiles
p1547
I2527
sVeasier
p1548
I2887
sVDetection
p1549
I3032
sVongoing
p1550
I3033
sVlexicons
p1551
I574
sVnewspaper
p1552
I1245
sVto-Korean
p1553
I3034
sVorientation
p1554
I3035
sVeventually
p1555
I1797
sVcharacteristics
p1556
I2528
sVmetric
p1557
I1499
sVepistemological
p1558
I2270
sVconcatenation
p1559
I1947
sVparse
p1560
I166
sVcluster
p1561
I1246
sVregularity
p1562
I3471
sVbridging
p1563
I2069
sVpushdown
p1564
I2530
sVmotivated
p1565
I2312
sVHidden
p1566
I1817
sVtechnology
p1567
I1500
sVpruning
p1568
I3036
sVmovements
p1569
I2533
sVbinary
p1570
I1329
sVdifferent
p1571
I95
sVTowards
p1572
I1330
sVdevelop
p1573
I824
sVauthor
p1574
I1470
sVmedia
p1575
I3472
sVexpanded
p1576
I3038
sVsame
p1577
I136
sVconfigurable
p1578
I3039
sVverifies
p1579
I3473
sVspeech
p1580
I106
sVarguments
p1581
I371
sVdocument
p1582
I1031
sVbring
p1583
I3642
sVevents
p1584
I691
sVstatus
p1585
I3040
sVextended
p1586
I1433
sVHTML
p1587
I3292
sVclosest
p1588
I247
sVreproducability
p1589
I3041
sVI
p1590
I1810
sVIR
p1591
I354
sV8000
p1592
I3686
sVdriven
p1593
I1247
sVconstraining
p1594
I1662
sVrunning
p1595
I1663
sVinvestigates
p1596
I2070
sVIL
p1597
I1664
sVvowel
p1598
I2534
sVchanging
p1599
I3042
sVvalidate
p1600
I1665
sVIE
p1601
I2775
sVimplements
p1602
I1666
sVbreakdowns
p1603
I1943
sVlargely
p1604
I2535
sVminimize
p1605
I2331
sVmacro
p1606
I1084
sVMORphological
p1607
I1312
sVIt
p1608
I299
sVDash
p1609
I767
sVTV
p1610
I2536
sVGrammars
p1611
I2071
sVwithout
p1612
I421
sVsolve
p1613
I3474
sVcomponents
p1614
I517
sVIn
p1615
I48
sVcoordinate
p1616
I746
sVmodel
p1617
I28
sVinterface
p1618
I2260
sVresearchers
p1619
I2362
sVIf
p1620
I248
sVlingually
p1621
I2072
sVbeing
p1622
I825
sVcircuit
p1623
I2315
sVSABLE
p1624
I1667
sVi/l
p1625
I3545
sVaspect
p1626
I1811
sVomissions
p1627
I1668
sVspeed
p1628
I1669
sVpassives
p1629
I1162
sVheuristic
p1630
I1002
sVmirrors
p1631
I2537
sVgenerator
p1632
I671
sVmonolingual
p1633
I877
sVseems
p1634
I2539
sVMedicine
p1635
I2893
sVimprovement
p1636
I584
sVblog
p1637
I1313
sVExpression
p1638
I3414
sV4
p1639
I413
sVversa
p1640
I1339
sVextensive
p1641
I1220
sVreal
p1642
I728
sVMorphemes
p1643
I1314
sVSVM
p1644
I3044
sVaspects
p1645
I2261
sVaround
p1646
I315
sVtenses
p1647
I340
sVrules
p1648
I176
sVMany
p1649
I518
sVadverbial
p1650
I1315
sVFSM
p1651
I3027
sVProject
p1652
I2540
sVgrid
p1653
I2073
sVworld
p1654
I1164
sVsampling
p1655
I3028
sVcorrecting
p1656
I2074
sVutterances
p1657
I242
sVidentifying
p1658
I729
sVPalmer
p1659
I3475
sVreduces
p1660
I3281
sVContemporary
p1661
I3476
sVserves
p1662
I3047
sVserver
p1663
I3477
sVSpoken
p1664
I2597
sVbenefit
p1665
I1537
sVeither
p1666
I204
sVValiant
p1667
I3478
sValways
p1668
I2076
sVmultiplicative
p1669
I1538
sVoutput
p1670
I101
sVinter
p1671
I1539
sVreduced
p1672
I1316
sVRecognition
p1673
I2541
sVmaking
p1674
I1894
sVspecifies
p1675
I2542
sV66
p1676
I2138
sVverbal
p1677
I855
sVconditional
p1678
I597
sVMark
p1679
I366
sVspecified
p1680
I2262
sVimages
p1681
I1295
sVsubtypes
p1682
I818
sVgrounded
p1683
I2538
sVascent
p1684
I2776
sVmatching
p1685
I2363
sVreasons
p1686
I3479
sVusers
p1687
I546
sVprovided
p1688
I542
sVtransliterations
p1689
I3480
sVslice
p1690
I3048
sVentities
p1691
I1471
sVconfirm
p1692
I3481
sVported
p1693
I3049
sVmultiplication
p1694
I3591
sVrecorded
p1695
I3050
sVlegal
p1696
I1558
sVvoice
p1697
I2930
sVcritical
p1698
I2078
sVdecomposition
p1699
I1671
sVprovides
p1700
I497
sVInterface
p1701
I2545
sVsemantically
p1702
I1058
sVtoponyms
p1703
I1085
sVKIMMO
p1704
I3051
sVrefer
p1705
I3052
sVbiased
p1706
I3178
sVaccessing
p1707
I2079
sVscientific
p1708
I3484
sVpower
p1709
I1388
sVequivalent
p1710
I867
sVsimplifications
p1711
I3053
sVmorpho
p1712
I1812
sVbiases
p1713
I3054
sVinherent
p1714
I3485
sVontology
p1715
I3055
sVearlier
p1716
I2546
sVtuning
p1717
I2361
sVcomplementation
p1718
I2547
sVcomparison
p1719
I443
sVcentral
p1720
I1540
sVof
p1721
I4
sVdiscussed
p1722
I1352
sVmeaning
p1723
I58
sVside
p1724
I2081
sVpractical
p1725
I186
sVmutually
p1726
I2082
sVsupervised
p1727
I400
sVgreatly
p1728
I709
sVact
p1729
I2083
sVmixed
p1730
I1672
sVMessage
p1731
I3486
sVdiscusses
p1732
I2313
sVor
p1733
I42
sVHyperText
p1734
I3606
sVenhancement
p1735
I2084
sVheavy
p1736
I3523
sVreferenced
p1737
I3056
sVNo
p1738
I2820
sVSwart
p1739
I3057
sVcommunication
p1740
I575
sVskilled
p1741
I2085
sVnuclearity
p1742
I3046
sVannotate
p1743
I1673
sVaccounts
p1744
I2086
sVdetermine
p1745
I1389
sVdischarge
p1746
I3397
sVelementary
p1747
I2087
sVpivot
p1748
I1390
sVmark
p1749
I2524
sVparseable
p1750
I3488
sVargumentation
p1751
I3058
sVfast
p1752
I2263
sVNL
p1753
I1391
sVlog
p1754
I498
sVarea
p1755
I3282
sVdistinctions
p1756
I1883
sVstrictly
p1757
I2550
sVthere
p1758
I1120
sVNE
p1759
I455
sVstark
p1760
I3059
sVMWEs
p1761
I554
sVlow
p1762
I3490
sVNP
p1763
I1945
sVDMLP
p1764
I2551
sVcomplete
p1765
I838
sVenough
p1766
I1384
sVformalisms
p1767
I786
sVporting
p1768
I3060
sVError
p1769
I3491
sVelimination
p1770
I1813
sVmethodologies
p1771
I3170
sVoptical
p1772
I2128
sVwith
p1773
I17
sVproposal
p1774
I2553
sVlonger
p1775
I2554
sVdatasets
p1776
I992
sVapplying
p1777
I826
sValgorithm
p1778
I121
sVembedded
p1779
I1320
sVdefault
p1780
I2555
sVpractically
p1781
I2088
sVrobustness
p1782
I981
sVontologies
p1783
I3653
sVnearest
p1784
I2990
sVorganize
p1785
I2422
sVcategorial
p1786
I1675
sVdetailed
p1787
I1108
sVdefinitions
p1788
I1541
sVad
p1789
I1472
sVappropriator
p1790
I2557
sVcertain
p1791
I702
sVdescribe
p1792
I226
sVMORPA
p1793
I1179
sVgeneral
p1794
I407
sVBlog
p1795
I3061
sVHow
p1796
I2558
sVas
p1797
I19
sVreliability
p1798
I2741
sVCriterion
p1799
I3062
sVat
p1800
I110
sVfile
p1801
I1676
sVclauses
p1802
I472
sVcontrolled
p1803
I2559
sVmoves
p1804
I3063
sVintra
p1805
I2212
sVprocessed
p1806
I2560
sV4.4
p1807
I2090
sVgenres
p1808
I768
sVcompleteness
p1809
I1678
sVAlgebra
p1810
I2264
sVcredibility
p1811
I2561
sVhybrid
p1812
I1250
sVdepth
p1813
I2912
sVfield
p1814
I800
sVvalid
p1815
I906
sV5
p1816
I827
sVTemplated
p1817
I3493
sVRetrieval
p1818
I3230
sV2007
p1819
I3065
sVWide
p1820
I2440
sVbriefly
p1821
I1222
sVvocabulary
p1822
I716
sVseparate
p1823
I2265
sVdelimiters
p1824
I2365
sVincludes
p1825
I952
sVderiving
p1826
I1680
sVattentional
p1827
I1321
sVimportant
p1828
I330
sVcoverage
p1829
I828
sVplanners
p1830
I2562
sVincluded
p1831
I2091
sVbacktransliteration
p1832
I2822
sVdecorated
p1833
I2092
sVKukich
p1834
I1884
sVbuilding
p1835
I603
sVthematic
p1836
I2093
sVcondensation
p1837
I2564
sVdiscriminative
p1838
I2094
sVStreet
p1839
I1189
sVLyric
p1840
I3495
sV120K
p1841
I2095
sVresolution
p1842
I278
sVoriginal
p1843
I787
sVundisambiguated
p1844
I1847
sVrepresent
p1845
I614
sVall
p1846
I73
sVsemantic
p1847
I53
sVconsider
p1848
I788
sVof-words
p1849
I1885
sVcaused
p1850
I3066
sVsublanguage
p1851
I907
sVunique
p1852
I3067
sVsplitting
p1853
I3068
sVmonth
p1854
I3069
sVsystemic
p1855
I2096
sVdeadline
p1856
I2563
sVcooperative
p1857
I1542
sVNaive
p1858
I2567
sVpartial
p1859
I3496
sVexpressions
p1860
I669
sVadhere
p1861
I2568
sVdecisions
p1862
I2266
sVreasoning
p1863
I1681
sVpolarity
p1864
I3497
sVreferring
p1865
I1251
sVrecomposed
p1866
I2414
sVequivalence
p1867
I316
sVremoval
p1868
I3072
sVngrams
p1869
I3498
sVto
p1870
I8
sVprogram
p1871
I1004
sVstochastic
p1872
I1190
sVnodes
p1873
I1543
sVpresentation
p1874
I2823
sV35.0
p1875
I2468
sVal.
p1876
I730
sVsound
p1877
I2068
sVTraining
p1878
I2569
sVwoman
p1879
I1682
sVofthe
p1880
I2097
sVsong
p1881
I477
sVvery
p1882
I235
sVtranslations
p1883
I282
sVverb
p1884
I468
sVworst
p1885
I2098
sVreordering
p1886
I2824
sVdecide
p1887
I1252
sVfall
p1888
I2099
sVGLOSSER
p1889
I1544
sVExtended
p1890
I2100
sVcompositionality
p1891
I2334
sV`
p1892
I1086
sVantonymous
p1893
I2571
sVunigram
p1894
I1886
sV--
p1895
I156
sVissue
p1896
I1946
sV89.75
p1897
I2572
sVdeveloping
p1898
I1942
sVlist
p1899
I658
sVapplicable
p1900
I1191
sVEntity
p1901
I839
sVlarge
p1902
I79
sVungrammatical
p1903
I1033
sVsmall
p1904
I321
sVbiological
p1905
I2825
sVantonymy
p1906
I634
sVemploying
p1907
I1887
sVintelligibility
p1908
I3501
sVten
p1909
I3283
sVprominence
p1910
I3073
sVGUI
p1911
I3074
sVActually
p1912
I2574
sVpast
p1913
I1323
sVTCNL
p1914
I3075
sVrate
p1915
I195
sVdesign
p1916
I789
sVGeneralized
p1917
I1841
sVpass
p1918
I2101
sVfurther
p1919
I769
sVtrick
p1920
I3502
sVwhat
p1921
I1324
sVcues
p1922
I556
sVsub
p1923
I1545
sVcitations
p1924
I3677
sV94.1
p1925
I2910
sV94.3
p1926
I635
sVversion
p1927
I1159
sVlearned
p1928
I1253
sVpublic
p1929
I1075
sVcontrast
p1930
I604
sVmovement
p1931
I2103
sVsegmentation
p1932
I237
sVfull
p1933
I1502
sVentailing
p1934
I3077
sVtags
p1935
I1473
sVcompilation
p1936
I1121
sVpromising
p1937
I1087
sVcomponent
p1938
I255
sVanswers
p1939
I378
sVAccording
p1940
I2576
sVlack
p1941
I2856
sVmodular
p1942
I1160
sVtracks
p1943
I173
sVthreads
p1944
I1289
sVexcess
p1945
I1088
sVstrong
p1946
I1815
sVClassifier
p1947
I2577
sVsocial
p1948
I2037
sVsearch
p1949
I139
sVgeneralizing
p1950
I2578
sVinspired
p1951
I2366
sVallows
p1952
I361
sVexperience
p1953
I2104
sVprior
p1954
I1161
sVamount
p1955
I422
sVConc
p1956
I2579
sVsimply
p1957
I2580
sVpublished
p1958
I1474
sV~
p1959
I2325
sVArchitecture
p1960
I2267
sVInterchange
p1961
I908
sVvia
p1962
I450
sVfollowed
p1963
I3503
sVadjoining
p1964
I2582
sVrequiring
p1965
I1503
sVsummations
p1966
I2583
sVtexts
p1967
I253
sVanalyzing
p1968
I3504
sVtrained
p1969
I318
sVchunks
p1970
I1504
sVtriphone
p1971
I3079
sVPolymorphemic
p1972
I3080
sVEvaluation
p1973
I590
sVdetecting
p1974
I3081
sVselect
p1975
I1888
sVSidner-style
p1976
I2106
sVintensive
p1977
I2584
sVconventional
p1978
I717
sVattendance
p1979
I1628
sVeye
p1980
I2585
sVtakes
p1981
I355
sVanswered
p1982
I2586
sVprobabilities
p1983
I411
sVobjectives
p1984
I2107
sVparaphrases
p1985
I74
sVOverall
p1986
I2587
sVtwo
p1987
I107
sVautomata
p1988
I2268
sV6
p1989
I684
sVTelecom
p1990
I3043
sVachieving
p1991
I1776
sVminor
p1992
I3505
sVmore
p1993
I167
sVinferential
p1994
I1325
sVflat
p1995
I2826
sVknows
p1996
I1089
sVinitiated
p1997
I2367
sVoperators
p1998
I636
sVconstructs
p1999
I953
sVsurprisingly
p2000
I2210
sVtested
p2001
I1326
sVAmerican
p2002
I2588
sVstudied
p2003
I2626
sVparticular
p2004
I170
sVknown
p2005
I1223
sVRepresentation
p2006
I2108
sVproducing
p2007
I2368
sVTerminology
p2008
I1327
sVpresumed
p2009
I909
sVnone
p2010
I3506
sV126,610
p2011
I3507
sVrecall
p2012
I585
sVByron
p2013
I3508
sVSU
p2014
I3084
sVSI
p2015
I1889
sVparagraph
p2016
I2589
sVlearn
p2017
I2314
sVstrategies
p2018
I1948
sVspecialized
p2019
I565
sVhistory
p2020
I1090
sVcompare
p2021
I300
sVIBM
p2022
I1224
sVimpacts
p2023
I1091
sVcorrectness
p2024
I3270
sVneglected
p2025
I2601
sVaccept
p2026
I3086
sVstates
p2027
I3289
sVhearted
p2028
I3307
sVattain
p2029
I1328
sVsense
p2030
I64
sVphrase
p2031
I183
sVprotein
p2032
I2532
sVfirmly
p2033
I3510
sVinformation
p2034
I43
sVneeds
p2035
I2590
sVcourt
p2036
I2109
sVgoal
p2037
I1777
sVrather
p2038
I703
sVacts
p2039
I743
sVutilize
p2040
I3511
sVsnippet
p2041
I2110
sVKDS
p2042
I3134
sVstemming
p2043
I2111
sVNouns
p2044
I519
sVspeeding
p2045
I1299
sVbefore
p2046
I2112
sVensemble
p2047
I1192
sVsimplicity
p2048
I3512
sVintended
p2049
I485
sVchunking
p2050
I1392
sVof-the
p2051
I197
sVderived
p2052
I124
sVmapping
p2053
I1478
sVreflect
p2054
I2369
sVpreprocessing
p2055
I1034
sVevaluations
p2056
I2269
sVqueries
p2057
I1936
sVreplete
p2058
I3089
sVa
p2059
I7
sVshort
p2060
I438
sVresemble
p2061
I2113
sVgeneralizations
p2062
I1985
sVdocumentation
p2063
I3514
sVplateau
p2064
I2114
sVDoD
p2065
I2591
sVhe/she/man
p2066
I1683
sVorthographic
p2067
I2890
sVnegligible
p2068
I3515
sVspecifying
p2069
I3516
sVfundamental
p2070
I1547
sVLinux
p2071
I3517
sVphrasal
p2072
I1005
sVretrieval
p2073
I111
sVhelp
p2074
I1193
sVhierarchy
p2075
I689
sVdeveloped
p2076
I544
sVhypertext
p2077
I3285
sVDefinite
p2078
I2593
sVdistortion
p2079
I2115
sVabstract
p2080
I3465
sVheld
p2081
I3518
sVpaper
p2082
I41
sVthrough
p2083
I331
sVFinite
p2084
I3286
sVavenue
p2085
I2594
sVits
p2086
I386
sVreranking
p2087
I2827
sV24
p2088
I810
sVstyle
p2089
I670
sV20
p2090
I731
sV22
p2091
I1158
sVsolving
p2092
I1028
sVresponsible
p2093
I2415
sVCarnegie
p2094
I3519
sVactually
p2095
I520
sVsystems
p2096
I61
sVdiffered
p2097
I3092
sVCommunicator
p2098
I1029
sVmight
p2099
I2271
sVPilot
p2100
I2117
sVfocussed
p2101
I3093
sVCombinatory
p2102
I3400
sVgood
p2103
I504
sVGrammar
p2104
I1505
sVseverely
p2105
I3520
sVtranscribing
p2106
I3094
sVpropose
p2107
I243
sVmorphologically
p2108
I3521
sVL
p2109
I811
sVreflected
p2110
I3095
sVframework
p2111
I356
sVhumans
p2112
I3228
sVmotivates
p2113
I3096
sVpermissible
p2114
I2596
sVfocusses
p2115
I1548
sVfoot
p2116
I2118
sVbigger
p2117
I812
sVeasily
p2118
I2777
sVgets
p2119
I2969
sVSemantic
p2120
I770
sVcoping
p2121
I2075
sVfully
p2122
I1435
sVpresented
p2123
I538
sVParticipants
p2124
I3534
sVlabeling
p2125
I1331
sVto-speech
p2126
I1818
sVcapability
p2127
I1194
sVmicro
p2128
I3522
sVtoken
p2129
I637
sVfound
p2130
I119
sVcharacterized
p2131
I1684
sVmeshes
p2132
I1598
sVconstructing
p2133
I3236
sVstorage
p2134
I3524
sVrating
p2135
I3015
sVtransform
p2136
I2954
sVweight
p2137
I910
sVgeneration
p2138
I249
sVproposals
p2139
I3526
sVcontiguous
p2140
I3099
sVhard
p2141
I1819
sVreduce
p2142
I1122
sVidea
p2143
I1890
sVengaging
p2144
I1685
sVdeterministically
p2145
I3100
sVinvestigated
p2146
I3101
sVobtains
p2147
I3527
sVoperation
p2148
I2272
sVbeyond
p2149
I1332
sVevent
p2150
I336
sVMore
p2151
I1686
sVEngine
p2152
I1687
sVsimplify
p2153
I2426
sVfunding
p2154
I1688
sVpsychology
p2155
I1820
sVitem
p2156
I2964
sVunnatural
p2157
I2119
sVsince
p2158
I3529
sVTranslations
p2159
I3530
sVresearch
p2160
I868
sVparticipants
p2161
I1333
sV7
p2162
I3102
sVR&D
p2163
I3103
sVlearners
p2164
I1436
sVinduced
p2165
I1195
sVevaluation
p2166
I120
sVoccurs
p2167
I3531
sVprosodic
p2168
I3177
sVEM
p2169
I1479
sV0.25
p2170
I3104
sVdiffer
p2171
I2125
sVterminals
p2172
I2599
sVbase
p2173
I954
sVconditioning
p2174
I879
sVmembers
p2175
I911
sVput
p2176
I1334
sVRegistration
p2177
I3105
sVgenerate
p2178
I1059
sVdefinition
p2179
I423
sVpairs
p2180
I192
sVbenefits
p2181
I3371
sVECA
p2182
I3106
sV-RRB-
p2183
I12
sVLEXSYS
p2184
I2122
sVlingual
p2185
I1196
sVPast
p2186
I2600
sVconducted
p2187
I2778
sVw
p2188
I1030
sVPresentor
p2189
I3009
sVassign
p2190
I2370
sVarose
p2191
I2123
sVmajor
p2192
I1060
sVutilizes
p2193
I1821
sVprobability
p2194
I932
sVnumber
p2195
I205
sVdisambigation
p2196
I3107
sVutilized
p2197
I2598
sVdone
p2198
I2273
sVleast
p2199
I322
sVmobile
p2200
I1438
sVloglinear
p2201
I1092
sVscoping
p2202
I2124
sVKoskenniemi
p2203
I3535
sVRamshaw
p2204
I3108
sVstory
p2205
I2121
sVDictionary
p2206
I2274
sVscript
p2207
I912
sVintroduction
p2208
I3536
sVleading
p2209
I1335
sVinteract
p2210
I1689
sVmoderately
p2211
I3109
sVconstruct
p2212
I1123
sVintense
p2213
I3110
sVobtainable
p2214
I2602
sVassumption
p2215
I2603
sVpassed
p2216
I1197
sVTerm
p2217
I3483
sVessays
p2218
I2275
sVscheme
p2219
I718
sVstore
p2220
I1550
sVtoo
p2221
I3287
sVrelies
p2222
I1690
sVstatement
p2223
I2126
sVLanguage
p2224
I392
sVbehind
p2225
I3288
sVfavorably
p2226
I3537
sVenable
p2227
I2821
sVdiscover
p2228
I2127
sVpart
p2229
I532
sVdifferentiate
p2230
I2276
sVnewswire
p2231
I2371
sVfocusing
p2232
I2277
sValphabets
p2233
I2129
sVtranslation
p2234
I37
sVbelieve
p2235
I2130
sVclassifiers
p2236
I401
sVsummarise
p2237
I3387
sVLinguistic
p2238
I2531
sVkind
p2239
I1061
sVb
p2240
I2604
sVdetermines
p2241
I1256
sV97.24
p2242
I2131
sVneural
p2243
I2746
sVimpersonal
p2244
I638
sVaims
p2245
I1506
sVnevertheless
p2246
I2373
sVdetermined
p2247
I1949
sVcontrary
p2248
I2605
sVsole
p2249
I2132
sVtoward
p2250
I3111
sVtreated
p2251
I732
sVIntra
p2252
I3538
sVinteractive
p2253
I2829
sVExclamation
p2254
I771
sVmotivation
p2255
I2606
sVTraditionally
p2256
I2607
sVdisplays
p2257
I2608
sVroughly
p2258
I2200
sVrandomly
p2259
I2609
sVtranscriptions
p2260
I2610
sVsubstantial
p2261
I2830
sVsentences
p2262
I83
sVPenn
p2263
I463
sVand-Compose
p2264
I2831
sVCRL
p2265
I2278
sVunstemmed
p2266
I2133
sVpaths
p2267
I1950
sVmodifier
p2268
I2485
sVconstructions
p2269
I555
sVbuilt
p2270
I476
sVdepending
p2271
I2611
sVKyoto
p2272
I3112
sVspeculative
p2273
I1336
sVto-end
p2274
I2134
sVextracted
p2275
I261
sVempirically
p2276
I2149
sVinternal
p2277
I313
sVgeneralized
p2278
I606
sVfinding
p2279
I1225
sVcommentary
p2280
I772
sVWith
p2281
I1691
sVtransparent
p2282
I3569
sVspectral
p2283
I2982
sVplay
p2284
I3539
sVadded
p2285
I859
sVSince
p2286
I360
sValleviate
p2287
I1480
sVmeasures
p2288
I341
sVreach
p2289
I1693
sVchart
p2290
I2279
sV77
p2291
I3114
sVmost
p2292
I244
sVplan
p2293
I1694
sVsignificant
p2294
I1062
sV70
p2295
I1823
sVservices
p2296
I3290
sVThe
p2297
I30
sVmeasured
p2298
I615
sVccg
p2299
I1437
sVstands
p2300
I3115
sVvalue
p2301
I3655
sVunequal
p2302
I913
sVgrams
p2303
I813
sVunsupervised
p2304
I201
sVwindows
p2305
I757
sVperformances
p2306
I1824
sVclear
p2307
I2136
sVsometimes
p2308
I2137
sVcover
p2309
I3291
sVtraditional
p2310
I1006
sVchemical
p2311
I3116
sVBoolean
p2312
I1568
sVOTP
p2313
I1394
sVMET
p2314
I3161
sVambiguities
p2315
I3117
sViterations
p2316
I2543
sVparticularly
p2317
I2613
sVgold
p2318
I1484
sVaccuracies
p2319
I1007
sVtreebank
p2320
I1140
sVaffix
p2321
I1093
sVconverge
p2322
I2614
sVsession
p2323
I3118
sVrelation
p2324
I148
sVcommonality
p2325
I3492
sVfine
p2326
I790
sVfind
p2327
I880
sVimpact
p2328
I505
sVaccess
p2329
I2139
sVBulgarian
p2330
I1035
sVService
p2331
I2140
sVparameters
p2332
I1257
sVdistributed
p2333
I1695
sVFrench
p2334
I297
sVPipelined
p2335
I1720
sVgenerators
p2336
I2316
sV8
p2337
I3540
sVUDRS
p2338
I3119
sVintractable
p2339
I3121
sVinterlingua
p2340
I2748
sVgains
p2341
I881
sVlexica
p2342
I2280
sVdependent
p2343
I576
sVcompiled
p2344
I1094
sVexpress
p2345
I293
sVassumed
p2346
I3489
sVtrees
p2347
I271
sVgeneralizable
p2348
I3541
sVWhile
p2349
I335
sVclosely
p2350
I1395
sVcompeting
p2351
I1095
sVcombinations
p2352
I301
sVreferencing
p2353
I1724
sVemails
p2354
I3543
sVcontextual
p2355
I1198
sVdeductive
p2356
I1696
sVresolve
p2357
I2375
sVroles
p2358
I2317
sVtransitional
p2359
I3544
sVinvestigate
p2360
I791
sVstored
p2361
I1775
sVcommon
p2362
I521
sVconnectionist
p2363
I1717
sV49
p2364
I3122
sVx
p2365
I1698
sVcreates
p2366
I3271
sVapproximations
p2367
I2341
sVcf.
p2368
I3599
sVset
p2369
I128
sVart
p2370
I163
sVFor
p2371
I434
sVachieved
p2372
I187
sViteration
p2373
I3547
sVtended
p2374
I3124
sVsex
p2375
I2196
sVachieves
p2376
I487
sVsee
p2377
I2615
sVindividual
p2378
I1141
sVbare
p2379
I3126
sVare
p2380
I31
sVclose
p2381
I303
sVtheoretic
p2382
I1337
sVlangauge
p2383
I2318
sVsequences
p2384
I1741
sVlearns
p2385
I1826
sVlearnt
p2386
I2142
sVbibliographic
p2387
I3548
sVexpert
p2388
I3293
sVSenseval
p2389
I1266
sVdistinctive
p2390
I3127
sVcurrently
p2391
I982
sVfamiliarity
p2392
I3549
sVSLIPPER
p2393
I1700
sVverbs
p2394
I280
sVvarious
p2395
I376
sVcaptured
p2396
I1670
sVnitpick
p2397
I3550
sVconsecutive
p2398
I1107
sVhold
p2399
I1701
sVconditions
p2400
I1778
sVavailable
p2401
I545
sVrecently
p2402
I792
sVresponses
p2403
I1574
sVAmorph
p2404
I3082
sVcomplementary
p2405
I1576
sVtargeted
p2406
I1634
sVinterfaces
p2407
I983
sVattention
p2408
I1952
sVManual
p2409
I3552
sVacquired
p2410
I3647
sVranked
p2411
I1258
sVopposition
p2412
I2617
sVdistinguish
p2413
I1405
sVrelying
p2414
I1827
sVboth
p2415
I96
sVc
p2416
I2618
sVfeeling
p2417
I3129
sVimproved
p2418
I1063
sVANA
p2419
I645
sVpacking
p2420
I3183
sVforeign
p2421
I2832
sVsensitive
p2422
I1891
sVimproves
p2423
I284
sVcontext
p2424
I38
sV18.6
p2425
I3553
sVwhole
p2426
I1163
sV23,000
p2427
I3130
sVexperimental
p2428
I720
sVarbitrarily
p2429
I1481
sVelaborating
p2430
I3554
sVpoint
p2431
I305
sVsimple
p2432
I221
sVaddress
p2433
I2376
sVcorresponds
p2434
I435
sVwhatever
p2435
I915
sVsuitabledata
p2436
I3131
sVagents
p2437
I721
sVadaptation
p2438
I984
sVOnline
p2439
I2144
sVTemporal
p2440
I3560
sVBMM
p2441
I2833
sVsimpler
p2442
I2747
sVCalculus
p2443
I3132
sVkernels
p2444
I3555
sVensures
p2445
I3556
sVdescribed
p2446
I408
sVtransformations
p2447
I1338
sVcreate
p2448
I319
sVProcessing
p2449
I814
sVdue
p2450
I801
sVstrategy
p2451
I733
sVMost
p2452
I2620
sVreduction
p2453
I533
sVdescribes
p2454
I439
sVcoarse
p2455
I1396
sVCarl
p2456
I3133
sVcollected
p2457
I592
sVextends
p2458
I3557
sVmeeting
p2459
I2621
sVtreatment
p2460
I1586
sVAnchoror
p2461
I3558
sVdialogue
p2462
I189
sVpartly
p2463
I916
sVAlthough
p2464
I541
sVAntworth
p2465
I3135
sVprecision
p2466
I208
sVmodelling
p2467
I568
sVN
p2468
I665
sVdetermination
p2469
I1660
sVrepresentative
p2470
I1737
sVsystematic
p2471
I2281
sVdespite
p2472
I2622
sVsurveys
p2473
I3295
sVassigning
p2474
I2623
sVintriguing
p2475
I3559
sVlook
p2476
I1340
sVexponential
p2477
I2377
sVoutperforms
p2478
I623
sVreliable
p2479
I2624
sVcorpora
p2480
I112
sVempirical
p2481
I815
sVevaluated
p2482
I367
sVwhile
p2483
I488
sVseed
p2484
I1601
sVintersentential
p2485
I3663
sVevaluating
p2486
I928
sVerror
p2487
I142
sVprojecting
p2488
I2206
sVguide
p2489
I1036
sVstyles
p2490
I2625
sV30
p2491
I1317
sVWSD
p2492
I362
sVWSI
p2493
I2403
sVunannotated
p2494
I1561
sVFurthermore
p2495
I1589
sVWSJ
p2496
I840
sVbinding
p2497
I1397
sVencountered
p2498
I3561
sVRCL
p2499
I991
sVtriple
p2500
I3562
sVRCG
p2501
I2378
sVemoticons
p2502
I2627
sVbaseline
p2503
I1096
sVFAQ
p2504
I1072
sVorders
p2505
I2802
sVread
p2506
I2835
sVdiscourse
p2507
I160
sVsimultaneous
p2508
I2628
sVcontents
p2509
I3350
sVwidely
p2510
I2629
sVmodification
p2511
I1097
sVsurvey
p2512
I3187
sVcomposition
p2513
I1702
sVunderspecified
p2514
I869
sVhigher
p2515
I681
sVdevelopment
p2516
I440
sVused
p2517
I46
sVunlabeled
p2518
I1342
sVassignment
p2519
I1343
sVannotator
p2520
I2630
sVTraditional
p2521
I1483
sVusually
p2522
I462
sVmoment
p2523
I3138
sVlevels
p2524
I734
sVuses
p2525
I216
sVpurpose
p2526
I782
sVnouns
p2527
I605
sVrobust
p2528
I441
sVimplement
p2529
I2148
sVrecent
p2530
I693
sVeigenvectors
p2531
I816
sVhypothesize
p2532
I2180
sVNamed
p2533
I835
sVtask
p2534
I104
sVdatabase
p2535
I358
sVAlmost
p2536
I2836
sVunderlies
p2537
I1600
sVanalysis
p2538
I117
sVsegmented
p2539
I1828
sVcalibrated
p2540
I1829
sVdepenencies
p2541
I1703
sVExamples
p2542
I3140
sVconsistency
p2543
I2633
sVorganization
p2544
I1064
sVparametric
p2545
I2634
sVprevention
p2546
I1098
sVILIMP
p2547
I446
sVexploits
p2548
I774
sVunseen
p2549
I3248
sVjudgments
p2550
I1830
sVannotators
p2551
I3141
sVdesk
p2552
I3565
sVinterleaved
p2553
I2635
sVcompetitive
p2554
I1954
sVcommunicative
p2555
I2241
sVintervals
p2556
I3566
sVquestions
p2557
I424
sVusing
p2558
I44
sVinference
p2559
I1692
sValternative
p2560
I127
sVsummaries
p2561
I1099
sValignment
p2562
I379
sVexecution
p2563
I3045
sVTheory
p2564
I986
sValso
p2565
I129
sVinformal
p2566
I3567
sVworkers
p2567
I3568
sVpredicative
p2568
I3409
sVguaranteed
p2569
I2636
sVrecognizing
p2570
I3113
sVsignals
p2571
I1616
sVsource
p2572
I256
sVcue
p2573
I2637
sV76.2
p2574
I1705
sVNegations
p2575
I523
sVinducing
p2576
I2806
sVrelevance
p2577
I2639
sVinput
p2578
I174
sVtransformation
p2579
I858
sVbuild
p2580
I704
sVBoth
p2581
I2004
sVTracking
p2582
I3144
sVformat
p2583
I1706
sVevaluate
p2584
I586
sVshowing
p2585
I1507
sVaggregation
p2586
I2380
sVjudgement
p2587
I1344
sVOz
p2588
I2641
sVconvenient
p2589
I2905
sVbit
p2590
I2837
sVagglutinative
p2591
I1226
sVOr
p2592
I250
sVprojects
p2593
I3145
sVformal
p2594
I323
sVcognitive
p2595
I1551
sVsemi
p2596
I955
sVComputing
p2597
I2934
sVsystematically
p2598
I3147
sVfollows
p2599
I2642
sVlemmatization
p2600
I1832
sVtranslates
p2601
I2643
sVseparately
p2602
I1345
sVcollect
p2603
I2838
sVSystemic
p2604
I1833
sVyields
p2605
I956
sVLearning
p2606
I3296
sVtranslated
p2607
I534
sVOT
p2608
I2839
sValignments
p2609
I557
sVTREC
p2610
I3148
sVterminology
p2611
I1439
sVmathematical
p2612
I3149
sVpertaining
p2613
I3150
sVoften
p2614
I292
sVpresenter
p2615
I3528
sVignored
p2616
I2645
sV88.2
p2617
I2646
sVcreation
p2618
I396
sVsome
p2619
I710
sVback
p2620
I2282
sVunderstood
p2621
I775
sVtrends
p2622
I3297
sVtowards
p2623
I1822
sVexamples
p2624
I310
sVMWE
p2625
I3151
sVInput
p2626
I2381
sVintractability
p2627
I3152
sVscale
p2628
I987
sVString
p2629
I2647
sVaffects
p2630
I3570
sVdecision
p2631
I469
sVintegration
p2632
I577
sVper
p2633
I2320
sVLILT
p2634
I1707
sVtends
p2635
I2150
sVviz
p2636
I3298
sVaugmenting
p2637
I2151
sVminimal
p2638
I3153
sVRCGs
p2639
I2152
sVbe
p2640
I15
sVmultilingual
p2641
I1440
sVrun
p2642
I1296
sVM
p2643
I2153
sVprocessing
p2644
I179
sVViterbi
p2645
I2475
sVconfidence
p2646
I1008
sg11
I918
sVstem
p2647
I1346
sVstep
p2648
I1779
sVCommunicate-Show
p2649
I3573
sVtwenty
p2650
I3533
sVMoreover
p2651
I2154
sVfrom
p2652
I21
sVpropositional
p2653
I617
sVTypically
p2654
I3154
sVby
p2655
I27
sVProcedural
p2656
I2032
sVmetrics
p2657
I2155
sVpipeline
p2658
I2649
sVworking
p2659
I2283
sVproven
p2660
I3393
sVconstraint
p2661
I1441
sVsimulation
p2662
I2650
sVrange
p2663
I1009
sVregular
p2664
I1552
sVextensions
p2665
I2651
sVdialog
p2666
I1156
sVblock
p2667
I659
sVCommon
p2668
I3574
sVcomputational
p2669
I673
sVACE
p2670
I276
sVexhaustively
p2671
I3669
sVcontext-free
p2672
I3155
sVinto
p2673
I70
sVPArser
p2674
I1298
sVisomorphic
p2675
I3156
sVframed
p2676
I1708
sVretaining
p2677
I3575
sVappropriate
p2678
I499
sVExperiment
p2679
I2840
sVprimarily
p2680
I2156
sVreturning
p2681
I2570
sVframes
p2682
I1165
sVinventories
p2683
I2157
sVNER
p2684
I2158
sVclustering
p2685
I735
sVstatistics
p2686
I1259
sVretrieving
p2687
I2159
sVprobabilistic
p2688
I452
sVFSAs
p2689
I2632
sVplacing
p2690
I1834
sVquestion
p2691
I169
sVlive
p2692
I3157
sVlong
p2693
I1305
sVconsultation
p2694
I3576
sVUnification
p2695
I2652
sVUser
p2696
I2653
sVforward
p2697
I2064
sV:
p2698
I40
sVfiles
p2699
I3577
sVconsiderably
p2700
I1709
sVtrainable
p2701
I1199
sVelsewhere
p2702
I251
sVtransliterated
p2703
I2655
sVgreat
p2704
I2080
sVcriteria
p2705
I2656
sVlink
p2706
I1835
sVrepeatedly
p2707
I3158
sVmultisentential
p2708
I2251
sVline
p2709
I495
sVconsiderable
p2710
I3020
sVgroupings
p2711
I1710
sVdirected
p2712
I817
sVBeijing
p2713
I3160
sVcompactly
p2714
I2658
sVentry
p2715
I2659
sVconsist
p2716
I2660
sVcorroborate
p2717
I3250
sVexamines
p2718
I3656
sVgenerating
p2719
I1442
sVup
p2720
I841
sVus
p2721
I640
sV87.5
p2722
I1151
sVgeneralize
p2723
I3070
sVSense
p2724
I2661
sVetc.
p2725
I1238
sVcalled
p2726
I288
sVLang
p2727
I3607
sVunits
p2728
I231
sVassociated
p2729
I1056
sVreconcile
p2730
I3162
sVintroducing
p2731
I2483
sVdefined
p2732
I1443
sVflow
p2733
I1606
sVparses
p2734
I1027
sVparser
p2735
I94
sVinfluence
p2736
I1398
sVduration
p2737
I1221
sVsingle
p2738
I503
sVdiverse
p2739
I860
sVNew
p2740
I2544
sV97,5
p2741
I3579
sVformalism
p2742
I971
sVPresentation
p2743
I2664
sVparsed
p2744
I694
sVdefines
p2745
I3163
sVentailment
p2746
I228
sV%
p2747
I49
sVgrs
p2748
I1124
sVamounts
p2749
I972
sVpriors
p2750
I692
sVapplication
p2751
I393
sVTM
p2752
I3164
sVbases
p2753
I3643
sVpronouns
p2754
I447
sVRecently
p2755
I2843
sVListen
p2756
I3580
sVrevision
p2757
I1554
sVdraw
p2758
I3581
sVelements
p2759
I1347
sVgenerates
p2760
I1200
sVcalculating
p2761
I1260
sVAI
p2762
I2665
sVbenchmark
p2763
I3165
sVbackbone
p2764
I2286
sVproblems
p2765
I97
sVhelpful
p2766
I3166
sVhelping
p2767
I2666
sVgenerated
p2768
I748
sVallowing
p2769
I674
sVhighlighting
p2770
I3670
sVsides
p2771
I3167
sVstructure
p2772
I115
sVdimensions
p2773
I1892
sVONE-like
p2774
I3168
sVantecedent
p2775
I1399
sVsvm
p2776
I3169
sVe
p2777
I1674
sVsyntactical
p2778
I776
sVvice
p2779
I1348
sVrequired
p2780
I882
sVresolving
p2781
I1555
sVAn
p2782
I920
sV2002
p2783
I3582
sV2003
p2784
I2667
sVAs
p2785
I2162
sVcarrying
p2786
I2668
sVweights
p2787
I524
sVAt
p2788
I1556
sV2004
p2789
I2669
sVbroad
p2790
I842
sVoracle
p2791
I736
sV2008
p2792
I2163
sVrequires
p2793
I607
sVdegrade
p2794
I2988
sVessay
p2795
I1349
sVRazor
p2796
I3583
sVLA.
p2797
I3171
sVcode
p2798
I3584
sVBased
p2799
I722
sVillustrates
p2800
I1557
sVTime
p2801
I2989
sVresults
p2802
I68
sVexisting
p2803
I436
sVillustrated
p2804
I3585
sVVerbmobil
p2805
I3586
sVsignatures
p2806
I1860
sVnotify
p2807
I3098
sVoverlap
p2808
I1697
sVKarttunen
p2809
I3587
sVquery
p2810
I1837
sVcontributions
p2811
I420
sVequivalences
p2812
I2670
sVcompact
p2813
I1838
sVexcludes
p2814
I2164
sVGraphical
p2815
I3172
sVcommas
p2816
I1825
sVRohrer
p2817
I2671
sVDFA
p2818
I3173
sVconcerned
p2819
I3588
sVdeterministic
p2820
I695
sVARPA
p2821
I2287
sVlanguages
p2822
I157
sVtopic
p2823
I348
sVhelps
p2824
I2165
sVWords
p2825
I2672
sVstable
p2826
I3589
sVinclude
p2827
I1038
sVdramatically
p2828
I2166
sVresources
p2829
I660
sVlabels
p2830
I1495
sVexpressing
p2831
I2673
sVorganizations
p2832
I3590
sVunstructured
p2833
I2674
sVhabituality
p2834
I3415
sVputting
p2835
I3175
sVimplausible
p2836
I1715
sVmatrices
p2837
I1716
sVSansei
p2838
I3592
sVcategories
p2839
I1227
sVtri
p2840
I3593
sVentire
p2841
I2167
sVmoderate
p2842
I3594
sVincoherent
p2843
I3176
sVgender
p2844
I921
sVintegrating
p2845
I3609
sVreduplications
p2846
I2168
sVfewer
p2847
I587
sVdeals
p2848
I1485
sVassignments
p2849
I2169
sV?
p2850
I3120
sVSTTK
p2851
I2781
sVnoted
p2852
I252
sVLAS
p2853
I1893
sVsmaller
p2854
I1350
sVInternet
p2855
I2888
sVCurrently
p2856
I2675
sVdeduction
p2857
I2360
sVdemonstrations
p2858
I3179
sVToolkit
p2859
I3180
sVfold
p2860
I1508
sVState
p2861
I3299
sVtraveling
p2862
I3595
sVinsertion
p2863
I3181
sVCriteria
p2864
I2170
sV3D
p2865
I2676
sVplays
p2866
I3596
sVgiving
p2867
I1559
sVassisted
p2868
I1560
sVexpressed
p2869
I922
sVnetworks
p2870
I3300
sVanaphoric
p2871
I397
sVconsistently
p2872
I3597
sVcustomization
p2873
I3301
sVexperiment
p2874
I478
sVLink
p2875
I3182
sVcrossed
p2876
I3196
sV;
p2877
I26
sVbody
p2878
I3123
sVfocuses
p2879
I2677
sVdegree
p2880
I1010
sVConrath
p2881
I3600
sVrespectively
p2882
I240
sVphonograms
p2883
I923
sVjointly
p2884
I1100
sVUp
p2885
I3672
sVdesired
p2886
I2619
sVexplore
p2887
I914
sVobjects
p2888
I1444
sVfocused
p2889
I1957
sVothers
p2890
I1054
sVlayout
p2891
I3602
sVphysiology
p2892
I3184
sVextreme
p2893
I3603
sVHMMs
p2894
I2678
sVconvert
p2895
I1351
sV38
p2896
I2145
sVChinese
p2897
I137
sVformalizing
p2898
I3185
sVtechnical
p2899
I1166
sV32
p2900
I1622
sVDisambiguation
p2901
I2679
sVlarger
p2902
I588
sVBikel
p2903
I1341
sVsuggests
p2904
I1400
sVresulting
p2905
I985
sVDCG
p2906
I3359
sVArabia
p2907
I3188
sVantecedents
p2908
I2172
sVArabic
p2909
I442
sV113K
p2910
I2120
sVmakes
p2911
I457
sVguidance
p2912
I2173
sVinvolves
p2913
I843
sVcomposed
p2914
I957
sVnamed
p2915
I1261
sVaddresses
p2916
I1562
sVclaim
p2917
I1563
sVSMT
p2918
I344
sVConstruct
p2919
I2288
sVaddressed
p2920
I3189
sVaddressee
p2921
I1564
sVdecrease
p2922
I2681
sVnames
p2923
I661
sVapply
p2924
I870
sVtools
p2925
I1718
sVcausal
p2926
I639
sVsuperordinate
p2927
I2682
sVuse
p2928
I51
sVMotivated
p2929
I777
sVlinks
p2930
I1719
sVremains
p2931
I1565
sVdetermining
p2932
I749
sVreadable
p2933
I2842
sVnext
p2934
I3604
sVDriven
p2935
I2683
sVfew
p2936
I1566
sVcircumstances
p2937
I2684
sVexamination
p2938
I3605
sVEU
p2939
I3525
sVthemselves
p2940
I1567
sVstage
p2941
I2289
sVclausal
p2942
I3197
sVsort
p2943
I2160
sVMulti
p2944
I3190
sVdecoders
p2945
I3191
sVformally
p2946
I3608
sVon
p2947
I16
sVmismatch
p2948
I1721
sVtrain
p2949
I593
sVlabelled
p2950
I1722
sVdeparture
p2951
I3192
sViii
p2952
I448
sVF1
p2953
I778
sVaccount
p2954
I803
sVportability
p2955
I2685
sVf
p2956
I802
sVthis
p2957
I36
sVchallenge
p2958
I1065
sVLibrary
p2959
I3194
sVplan-generator
p2960
I3195
sVearly
p2961
I3139
sVCombining
p2962
I2686
sVmeet
p2963
I3610
sVproof
p2964
I737
sVcontrol
p2965
I1958
sVproprietary
p2966
I933
sVe.g.
p2967
I425
sVprocess
p2968
I229
sVintroduces
p2969
I2384
sVproportions
p2970
I2051
sVcertification
p2971
I2654
sVpurposes
p2972
I2175
sVpieces
p2973
I3611
sVhigh
p2974
I272
sVeffectively
p2975
I594
sVtag
p2976
I202
sVUS
p2977
I3254
sVemploys
p2978
I1723
sVserial
p2979
I2688
sVSeveral
p2980
I2689
sVnative
p2981
I1895
sVvaried
p2982
I2690
sVmemorize
p2983
I2385
sVpsycholinguistic
p2984
I3612
sVFACILE
p2985
I3613
sVIdeally
p2986
I3322
sVforest
p2987
I1101
sVstemmer
p2988
I666
sVinstead
p2989
I861
sVintelligent
p2990
I198
sVQ&A
p2991
I2691
sVprofile
p2992
I2176
sVblocks
p2993
I1486
sVspecifications
p2994
I2321
sVcollection
p2995
I1445
sVrestrict
p2996
I3344
sVproductive
p2997
I1509
sVJapan
p2998
I3255
sVfits
p2999
I2291
sVmonitoring
p3000
I3199
sVspelling
p3001
I924
sVcomma
p3002
I2692
sVefficiently
p3003
I1896
sVambiguous
p3004
I398
sVadvocated
p3005
I3078
sVbind
p3006
I1609
sVcorrespond
p3007
I1732
sVredundant
p3008
I3615
sVOne
p3009
I1201
sVadjectival
p3010
I2177
sVencyclopedia
p3011
I2695
sVallow
p3012
I1446
sVlooking
p3013
I2292
sVwordform
p3014
I2252
sVcepstrum
p3015
I2178
sVBoosting
p3016
I3083
sVpackets
p3017
I3200
sVpremature
p3018
I3201
sVproduces
p3019
I394
sVkonpyuutaa
p3020
I3616
sVinsight
p3021
I2179
sVfacilitated
p3022
I1103
sVinterpreted
p3023
I1353
sVproduced
p3024
I307
sVfeasibility
p3025
I1969
sVincluding
p3026
I489
sVlooks
p3027
I3617
sVduring
p3028
I1836
sVconverting
p3029
I3202
sVfacilitates
p3030
I3618
sVdeictic
p3031
I1725
sVperfect
p3032
I2696
sVsuperior
p3033
I507
sVMultiple
p3034
I1871
sVcollocations
p3035
I1066
sVchosen
p3036
I145
sVtemporal
p3037
I608
sVent
p3038
I1591
sVlabor
p3039
I2697
sVnewsgroup
p3040
I2181
sVchoose
p3041
I1234
sVclusters
p3042
I934
sVsubparagraph
p3043
I2182
sV<
p3044
I1354
sVattachment
p3045
I2698
sVdesigns
p3046
I1780
sVTask
p3047
I1781
sVbilingual
p3048
I164
sVmaterial
p3049
I479
sVindexing
p3050
I1167
sVNormF
p3051
I3487
sVinterword
p3052
I2183
sVoptimal
p3053
I1805
sVrealize
p3054
I1897
sVestablishes
p3055
I2700
sVinterlingual
p3056
I1487
sVarticles
p3057
I958
sVHPSG
p3058
I1168
sVICICLE
p3059
I2701
sVedit
p3060
I2844
sVTreebank
p3061
I935
sVidentified
p3062
I2184
sVpathway
p3063
I2488
sVsufficiently
p3064
I3620
sVmagnitude
p3065
I2185
sVtruth
p3066
I2186
sVSchutze
p3067
I3621
sVphonetic
p3068
I2293
sVreferences
p3069
I2294
sVidentifies
p3070
I2703
sV|
p3071
I579
sVconstraints
p3072
I595
sVsubset
p3073
I1839
sVlie
p3074
I3203
sVNetwork
p3075
I1899
sVmet
p3076
I2187
sVStructured
p3077
I2704
sVrelated
p3078
I158
sVNext
p3079
I3204
sVconstitute
p3080
I1510
sVfrequency
p3081
I794
sVinterplay
p3082
I2188
sVmeasure
p3083
I409
sVseparating
p3084
I2705
sVour
p3085
I59
sVOCR
p3086
I936
sVsalesman
p3087
I3622
sV87
p3088
I2189
sVspecial
p3089
I2190
sVout
p3090
I262
sVcategory
p3091
I1900
sVPropbank
p3092
I2191
sVlimitation
p3093
I3386
sVmatrix
p3094
I1901
sVsentiment
p3095
I116
sVagglutinating
p3096
I2918
sVintegrates
p3097
I1403
sVSundheim
p3098
I3302
sV73.1
p3099
I2706
sV73.2
p3100
I3623
sVMeSH
p3101
I1142
sVCER
p3102
I3206
sVperforms
p3103
I1782
sVSVMs
p3104
I2192
sVadaptive
p3105
I2193
sVsupports
p3106
I1104
sVintegrated
p3107
I2295
sVquantification
p3108
I2707
sVdictionary
p3109
I415
sVinteractions
p3110
I959
sVThis
p3111
I69
sVretrieved
p3112
I402
sVmaintains
p3113
I3207
sVattending
p3114
I3624
sVapproaches
p3115
I458
sVfactored
p3116
I2708
sVconflicts
p3117
I2194
sVlikelihood
p3118
I506
sVretrieves
p3119
I2709
sVCSR
p3120
I1067
sVinteraction
p3121
I723
sVphrases
p3122
I180
sVcould
p3123
I151
sVtimes
p3124
I829
sVcounterpart
p3125
I1903
sVconversation
p3126
I2845
sVlength
p3127
I1840
sVexplored
p3128
I1355
sVderivations
p3129
I1728
sVspecification
p3130
I2710
sVcorrector
p3131
I3625
sVNTPC
p3132
I3303
sVfacilitate
p3133
I3626
sVdeviates
p3134
I3627
sVLongman
p3135
I3628
sVpairing
p3136
I2711
sVreflexive
p3137
I919
sVthird
p3138
I3443
sVpowerful
p3139
I1228
sVscene
p3140
I2712
sVResults
p3141
I2694
sVLemma
p3142
I888
sVimprovements
p3143
I1105
sVoccurrences
p3144
I988
sVMUC
p3145
I2336
sVrepresentations
p3146
I352
sV1989
p3147
I3304
sVquality
p3148
I175
sVTheoretical
p3149
I3629
sVASR
p3150
I675
sVSlavic
p3151
I1729
sVmanagement
p3152
I2714
sVfair
p3153
I3630
sVstrict
p3154
I2364
sVordering
p3155
I1569
sVunknown
p3156
I652
sVsystem
p3157
I34
sVrelations
p3158
I123
sVtheir
p3159
I99
sVattack
p3160
I3209
sVary
p3161
I3632
sVprogrammable
p3162
I1730
sVman
p3163
I2783
sVconforms
p3164
I3546
sVfinal
p3165
I618
sVadopts
p3166
I1624
sVLincoln
p3167
I3305
sVLevin
p3168
I1356
sVexplanation
p3169
I2195
sVshallow
p3170
I1262
sVdebate
p3171
I3225
sVlists
p3172
I619
sVSentiment
p3173
I3210
sVnotions
p3174
I3211
sVsimulate
p3175
I3212
sVnoun
p3176
I686
sVFrance
p3177
I3125
sVobserved
p3178
I1831
sVwarfare
p3179
I3214
sVpointers
p3180
I641
sVvocabularies
p3181
I2715
sVricher
p3182
I1842
sVsubmitted
p3183
I2716
sVKL
p3184
I1040
sVfrugal
p3185
I1169
sVappealing
p3186
I3633
sVNigam
p3187
I2693
sVproviding
p3188
I642
sVXTAG
p3189
I2197
sVSmadja
p3190
I2717
sVdescriptions
p3191
I1488
sVcollecting
p3192
I1263
sVInformation
p3193
I1731
sVEDOL
p3194
I1959
sVPATR
p3195
I2718
sVanatomy
p3196
I3215
sVphonetically
p3197
I3635
sVfluctuation
p3198
I2198
sVyielding
p3199
I2490
sVMachine
p3200
I3636
sVOther
p3201
I2199
sVhave
p3202
I67
sVneed
p3203
I948
sVexhibit
p3204
I2719
sVconstrained
p3205
I2720
sVdemonstration
p3206
I1203
sVclearly
p3207
I1264
sVviewed
p3208
I3216
sVtemplate
p3209
I1462
sVdocuments
p3210
I480
sVmappings
p3211
I1204
sVunadulterated
p3212
I3217
sVAfter
p3213
I1960
sVable
p3214
I643
sVmechanism
p3215
I1843
sVdecomposing
p3216
I1733
sVconcerns
p3217
I1570
sVFocused
p3218
I1106
sVincorporating
p3219
I1357
sVwhich
p3220
I20
sVBayesian
p3221
I1571
sVsubject
p3222
I1126
sV=
p3223
I1447
sVaccuracy
p3224
I118
sVpatchy
p3225
I1734
sVpetrol
p3226
I3218
sVwho
p3227
I3219
sVPoS
p3228
I535
sVSLS
p3229
I1905
sVmimics
p3230
I1844
sVSLM
p3231
I3306
sVoverlapping
p3232
I1448
sVfrequencies
p3233
I3638
sVpreliminary
p3234
I1265
sVcapacity
p3235
I2920
sVsegment
p3236
I558
sVclass
p3237
I296
sVhyponymy
p3238
I644
sVvolume
p3239
I3639
sVplacement
p3240
I3640
sVconsequences
p3241
I3220
sVSong
p3242
I522
sVrequest
p3243
I2246
sVface
p3244
I1267
sVHigh
p3245
I2721
sVgraphs
p3246
I2722
sVdiscursive
p3247
I766
sVAdjoining
p3248
I3641
sVmechanical
p3249
I239
sVfact
p3250
I2723
sVgoals
p3251
I2724
sVselection
p3252
I298
sVto-one
p3253
I3222
sVtext
p3254
I39
sVcognitively
p3255
I3223
sVsupported
p3256
I1735
sVBiber
p3257
I2725
sVvisualized
p3258
I1736
sVpurely
p3259
I3614
sVplanning
p3260
I1268
sVUnder
p3261
I3224
sVpossibilities
p3262
I3429
sVtechnologies
p3263
I2552
sVbased
p3264
I24
sVknowledge
p3265
I134
sVsubstitutability
p3266
I3226
sVshould
p3267
I596
sVterminal
p3268
I2726
sVlemma
p3269
I285
sVunable
p3270
I3378
sVcandidates
p3271
I470
sVYork
p3272
I2727
sVambiguity
p3273
I196
sVindeed
p3274
I2491
sVattained
p3275
I1358
sVemployed
p3276
I1270
sVlocal
p3277
I862
sVachieve
p3278
I697
sVsuccessively
p3279
I2992
sVmeant
p3280
I2728
sVmove
p3281
I3227
sVhandle
p3282
I1041
sVmeans
p3283
I449
sVoverall
p3284
I1229
sVneighbour
p3285
I3234
sVjoint
p3286
I1489
sVmade
p3287
I304
sVwords
p3288
I23
sVprobably
p3289
I2779
sVyears
p3290
I2810
sVprocedures
p3291
I1573
sVareas
p3292
I1170
sVsymbols
p3293
I2729
sVprocesses
p3294
I960
sVBecause
p3295
I2730
sVsubstrate
p3296
I2201
sVcooccurrence
p3297
I2202
sVcomprising
p3298
I3644
sVtuned
p3299
I3645
sVWall
p3300
I1208
sVATIS
p3301
I3646
sVASL
p3302
I1904
sVgram
p3303
I464
sVcontain
p3304
I819
sVlyric
p3305
I484
sVfixed
p3306
I1845
sVview
p3307
I428
sVFDA
p3308
I1171
sVpredictive
p3309
I1271
sVKLONE
p3310
I1649
sVconjuncts
p3311
I467
sVcomputed
p3312
I1449
sVpronoun
p3313
I357
sVapproximating
p3314
I2757
sVframe
p3315
I1450
sVcorrelations
p3316
I3648
sVQuestion
p3317
I755
sVmodule
p3318
I1907
sVoperates
p3319
I559
sVargued
p3320
I3275
sVcomputes
p3321
I2732
sVcomputer
p3322
I939
sVCRF
p3323
I1042
sVusefulness
p3324
I3229
sVpacked
p3325
I1127
sVstatistically
p3326
I1875
sVLEXICALL
p3327
I2203
sVphases
p3328
I2204
sVexploited
p3329
I1846
sVpattern
p3330
I1575
sVmissing
p3331
I3551
sVThus
p3332
I2205
sVtend
p3333
I1143
sVfavor
p3334
I2733
sVstate
p3335
I113
sVdifficulties
p3336
I1955
sVidentification
p3337
I845
sVclosed
p3338
I76
sVPreliminary
p3339
I3649
sVPK
p3340
I109
sVboundary
p3341
I1205
sVmono
p3342
I2207
sVemail
p3343
I609
sVcomparable
p3344
I610
sVJINTACCS
p3345
I1359
sVability
p3346
I820
sVlinguistics
p3347
I1202
sVimportance
p3348
I1511
sVinterpolate
p3349
I2734
sVefficiency
p3350
I940
sVUNIX
p3351
I1738
sVhypothesis
p3352
I1490
sVkey
p3353
I185
sVinterchangeable
p3354
I1360
sVconfiguration
p3355
I2735
sVproblem
p3356
I263
sVparaphrasing
p3357
I429
sVLCS
p3358
I1491
sVlimits
p3359
I2736
sVminutes
p3360
I3650
sVtaking
p3361
I1961
sVagree
p3362
I3231
sV32.8
p3363
I2737
sVattributes
p3364
I2738
sVpassing
p3365
I1739
sVestimation
p3366
I662
sVFriedman
p3367
I1740
sVstrongly
p3368
I2089
sVrelevant
p3369
I846
sVco
p3370
I459
sVLog
p3371
I3232
sVconclude
p3372
I2296
sVMonolingual
p3373
I2739
sVspeaker
p3374
I1908
sVprospect
p3375
I2208
sVgenre
p3376
I2143
sVFinally
p3377
I2324
sVcrafted
p3378
I1172
sVnews
p3379
I369
sVrespect
p3380
I571
sVTemple
p3381
I3233
sV2000
p3382
I3064
sVi.e.
p3383
I324
sVwhy
p3384
I3651
sVaddition
p3385
I676
sValigning
p3386
I1406
sVdistributional
p3387
I1068
sVgenetic
p3388
I1742
sVgaze
p3389
I1272
sVtreat
p3390
I1743
sVSwitchboard
p3391
I3652
sVindicators
p3392
I1744
sVutilizing
p3393
I1407
sVGen
p3394
I2556
sVdefine
p3395
I525
sVsuggested
p3396
I2740
sVsenses
p3397
I84
sVcorresponding
p3398
I831
sVsufficient
p3399
I2297
sVcoherence
p3400
I832
sVbulk
p3401
I2699
sVinflected
p3402
I2105
sVfinished
p3403
I3235
sVPSI
p3404
I1745
sV-LSB-
p3405
I267
sVdeep
p3406
I1003
sVWorld
p3407
I2702
sVlast
p3408
I3237
sVan
p3409
I22
sVConsequently
p3410
I3654
sVpresent
p3411
I56
sVreliably
p3412
I2958
sVmulti
p3413
I337
sVnovel
p3414
I258
sVsubsets
p3415
I1909
sVcontexts
p3416
I646
sValign
p3417
I2209
sVtriggers
p3418
I1746
sVexamine
p3419
I1501
sVdirectionality
p3420
I2895
sVchoices
p3421
I1173
sVwill
p3422
I32
sVframeworks
p3423
I2298
sVhubs
p3424
I1747
sVUSR
p3425
I1409
sVCentering
p3426
I2472
sVmanually
p3427
I2387
sValmost
p3428
I3657
sVformulation
p3429
I1677
sVthus
p3430
I349
sVcontiguity
p3431
I1546
sVsurface
p3432
I1273
sVhardware
p3433
I2326
sVexamined
p3434
I925
sVdual
p3435
I847
sVclaimed
p3436
I3284
sVPiped
p3437
I3658
sVgreater
p3438
I1402
sVcapture
p3439
I273
sVFreund
p3440
I3238
sVterrorist
p3441
I1361
sVOffering
p3442
I3091
sVgeneric
p3443
I974
sVrhetorical
p3444
I2299
sVappreciable
p3445
I3239
sVcivilian
p3446
I1806
sVprogressing
p3447
I2211
sVcross
p3448
I833
sVenumeration
p3449
I3659
sVparts
p3450
I368
sVMT.
p3451
I1174
sVschematic
p3452
I2742
sVTIPSTER
p3453
I1144
sVfinite
p3454
I437
sVhyponym
p3455
I2743
sVMBR
p3456
I2388
sVdifficult
p3457
I1451
sVMarcus
p3458
I3240
sVpractice
p3459
I2300
sVThird
p3460
I3241
sVcubic
p3461
I2389
sVMedical
p3462
I1910
sVupon
p3463
I1175
sVeffect
p3464
I1145
sVMaximum
p3465
I3427
sVparametrized
p3466
I2505
sVII
p3467
I2301
sVarchitectures
p3468
I3660
sVstudent
p3469
I2213
sVdistinction
p3470
I2302
sVfrequently
p3471
I1408
sVjudgment
p3472
I2745
sVoff
p3473
I1274
sVproceed
p3474
I3242
sVfunctionalities
p3475
I1748
sVbootstrapping
p3476
I2372
sVi
p3477
I381
sVingredients
p3478
I1767
sVwell
p3479
I153
sVpatterns
p3480
I317
sVExperiments
p3481
I647
sVcommand
p3482
I2214
sVsets
p3483
I257
sVcomparisons
p3484
I1362
sVdisambiguated
p3485
I1749
sV1.25
p3486
I3243
sVless
p3487
I883
sVincreasingly
p3488
I1043
sVnovice
p3489
I2215
sVaccurate
p3490
I1012
sVhalf
p3491
I2493
sVnumbering
p3492
I2216
sVobtain
p3493
I698
sVEmotions
p3494
I2749
sVdetail
p3495
I2392
sVindicative
p3496
I2750
sVsources
p3497
I989
sVunderlying
p3498
I1750
sVvirtual
p3499
I2751
sVpredicts
p3500
I3244
sVskill
p3501
I1848
sVglue
p3502
I1044
sVpipelined
p3503
I3661
sVNEGRA
p3504
I1751
sVweb
p3505
I926
sVrapid
p3506
I2752
sVdensity
p3507
I1752
sVTurkish
p3508
I857
sVcapabilities
p3509
I1753
sVoutlines
p3510
I2217
sVlattice
p3511
I1146
sVadd
p3512
I2847
sVSUMMIT
p3513
I3662
sVcombine
p3514
I1147
sVdevelopments
p3515
I3246
sVDespite
p3516
I2390
sVusage
p3517
I779
sVcompares
p3518
I3310
sVmatched
p3519
I3247
sVwarrant
p3520
I2218
sVBy
p3521
I1176
sVmatch
p3522
I649
sVresolved
p3523
I3664
sVtests
p3524
I961
sVunlexicalized
p3525
I750
sVUnfortunately
p3526
I3665
sVchecking
p3527
I1962
sVdevised
p3528
I2753
sVLayer
p3529
I1911
sVcommunity
p3530
I2219
sVfacial
p3531
I2780
sVresolves
p3532
I2220
sVvariants
p3533
I1849
sVessential
p3534
I3666
sVloss
p3535
I751
sVBottleneck
p3536
I3262
sVnecessary
p3537
I547
sVlike
p3538
I177
sVsuccess
p3539
I1177
sV2491
p3540
I3667
sVexploiting
p3541
I1754
sVqualitative
p3542
I2221
sVWithin
p3543
I3668
sVdictionaries
p3544
I738
sVsized
p3545
I1755
sVsparsity
p3546
I3249
sVNagao
p3547
I2754
sVlemmatized
p3548
I1615
sVworks
p3549
I990
sVmarker
p3550
I2901
sVbecause
p3551
I217
sVclassical
p3552
I2222
sVsequence
p3553
I1577
sVphenomena
p3554
I1178
sVsearching
p3555
I1363
sVlibrary
p3556
I2784
sVwider
p3557
I2446
sVrepeat
p3558
I3685
sVconnectives
p3559
I3251
sVchoosing
p3560
I2848
sVproper
p3561
I884
sVrecognition
p3562
I147
sVhappens
p3563
I2223
sVTranslating
p3564
I2755
sVprojection
p3565
I2059
sVcollaborative
p3566
I1756
sVlead
p3567
I1850
sVdemonstrates
p3568
I844
sVavoid
p3569
I3671
sVHowever
p3570
I1410
sVmarkers
p3571
I975
sVReichenbachian
p3572
I780
sVdoes
p3573
I864
sVexpensive
p3574
I3294
sVintersections
p3575
I2756
sVleverages
p3576
I1758
sVdemonstrated
p3577
I1148
sVlimitations
p3578
I1069
sVselecting
p3579
I1783
sVanalysed
p3580
I3601
sVexpansion
p3581
I3673
sVconveyed
p3582
I2849
sValthough
p3583
I1578
sVAcoustic
p3584
I2174
sVanalyses
p3585
I973
sVnoisy
p3586
I724
sVgained
p3587
I3253
sVabout
p3588
I326
sVgazetteer
p3589
I1759
sVcarried
p3590
I2303
sVextension
p3591
I1109
sVhastiness
p3592
I2225
sVGeneration
p3593
I1760
sVnonverbal
p3594
I1364
sVrecognized
p3595
I2687
sVhot
p3596
I3329
sVcompatible
p3597
I1579
sVdependency
p3598
I274
sVseeds
p3599
I1365
sVrecognizer
p3600
I1411
sVrecognizes
p3601
I3198
sVintroduced
p3602
I696
sVsoftware
p3603
I1912
sVBLEU
p3604
I752
sVhomogeneous
p3605
I3256
sVequally
p3606
I3257
sVLMs
p3607
I1974
sVpreviously
p3608
I289
sVICALL
p3609
I1761
sVfunctional
p3610
I1013
sVdataset
p3611
I1762
sVweather
p3612
I3674
sVinitially
p3613
I3128
sVutility
p3614
I1045
sV1984
p3615
I2226
sVprocessor
p3616
I3675
sVadditional
p3617
I453
sVtransfer
p3618
I598
sV*
p3619
I1763
sVspots
p3620
I3676
sVsmoothing
p3621
I941
sVquadratic
p3622
I3631
sVgene
p3623
I2680
sVchunk
p3624
I2227
sVnaturally
p3625
I1206
sVfunction
p3626
I219
sVEssay
p3627
I2228
sVbrowsing
p3628
I3258
sVbus
p3629
I3259
sVdisambiguate
p3630
I2304
sVExperimental
p3631
I1207
sVCoalition
p3632
I3678
sVbut
p3633
I213
sVhistogram
p3634
I1764
sVsubjective
p3635
I3260
sVneutral
p3636
I2229
sVhierarchical
p3637
I942
sVgain
p3638
I2391
sVautomated
p3639
I1014
sVUDRSs
p3640
I1275
sVhighest
p3641
I1765
sV84.6
p3642
I650
sVillustrative
p3643
I3261
sVauxiliary
p3644
I1963
sV86.9
p3645
I2758
sVmodifiers
p3646
I526
sVcompute
p3647
I572
sVSentence
p3648
I1851
sVwhether
p3649
I830
sV86.6
p3650
I1366
sVformalized
p3651
I3679
sVrecord
p3652
I3680
sVconverted
p3653
I1110
sVlimit
p3654
I3309
sVdemonstrate
p3655
I338
sVmeronymy
p3656
I630
sVpiece
p3657
I2850
sVinformational
p3658
I2759
sVdisplay
p3659
I1493
sVBasque
p3660
I2760
sVbigram
p3661
I821
sVrecognize
p3662
I1412
sVuniversal
p3663
I2761
sVcontribute
p3664
I527
sVMSR
p3665
I78
sVidentities
p3666
I1766
sVfunctions
p3667
I403
sVcompared
p3668
I1015
sVvariety
p3669
I677
sVStructures
p3670
I3681
sV45
p3671
I2231
sV42
p3672
I3682
sVforests
p3673
I1128
sV40
p3674
I1367
sVDelivery
p3675
I1111
sVdisjoint
p3676
I3637
sVother
p3677
I82
sVlookup
p3678
I2290
sVbackwards
p3679
I3326
sV85
p3680
I2043
sVconcerning
p3681
I3683
sVhandcrafted
p3682
I3684
sV1991b
p3683
I2764
sVkinds
p3684
I1209
sVSpanish
p3685
I1853
sVvariation
p3686
I711
sVenlargement
p3687
I1413
sVFuture
p3688
I2762
sVtonnes
p3689
I2851
sVdemands
p3690
I3263
sVthe-shelf
p3691
I2232
sVCCLINC
p3692
I1928
sVCategorial
p3693
I3687
sVPCFG
p3694
I490
sVfundamentally
p3695
I3264
sVdesigners
p3696
I3265
sVvalidation
p3697
I3688
sV'
p3698
I937
sVranks
p3699
I3266
sVoral
p3700
I1704
sVblogs
p3701
I3267
sVfactors
p3702
I2393
sVkanji
p3703
I927
sVrule
p3704
I508
sVstrings
p3705
I135
sVtroponymic
p3706
I651
sVProposition
p3707
I1699
sVcompete
p3708
I1768
sVsearched
p3709
I430
sVunderstand
p3710
I2834
sV-RSB-
p3711
I268
sVTechniques
p3712
I1769
sVaugmented
p3713
I1129
s(lp3714
g19
ag14
ag698
ag276
ag1721
ag614
ag1333
ag2059
ag1870
ag662
ag446
ag776
ag2183
ag655
ag342
ag2640
ag2947
ag1773
ag183
ag1797
ag3220
ag2652
ag3409
ag3288
ag3264
ag1401
ag2877
ag2655
ag1617
ag1256
ag2297
ag2380
ag3422
ag396
ag3157
ag571
ag2957
ag2234
ag2424
ag3254
ag2698
ag2082
ag1733
ag2034
ag2558
ag1094
ag2517
ag908
ag1615
ag2747
ag1284
ag2928
ag569
ag1847
ag535
ag1020
ag3411
ag171
ag1723
ag3085
ag732
ag2096
ag1355
ag376
ag2030
ag1460
ag859
ag3202
ag2802
ag3111
ag2673
ag1543
ag1136
ag1846
ag1985
ag1468
ag3338
ag705
ag3665
ag1902
ag286
ag1138
ag3677
ag2262
ag3397
ag1390
ag216
ag103
ag1254
ag1295
ag1319
ag613
ag823
ag221
ag2735
ag1571
ag2415
ag2765
ag223
ag3159
ag1165
ag1670
ag1119
ag1278
ag2534
ag572
ag1580
ag1987
ag1209
ag3340
ag1800
ag2073
ag2480
ag3335
ag615
ag2772
ag3095
ag2538
ag3224
ag2130
ag2166
ag1778
ag233
ag3158
ag2052
ag1084
ag308
ag2560
ag2369
ag2565
ag1506
ag407
ag447
ag1163
ag3265
ag3705
ag1577
ag2897
ag1132
ag1949
ag1096
ag1196
ag2487
ag1142
ag299
ag3036
ag224
ag3562
ag2324
ag968
ag829
ag3123
ag670
ag3479
ag1539
ag557
ag1895
ag2822
ag3078
ag893
ag2507
ag188
ag556
ag2370
ag3048
ag757
ag1560
ag1993
ag244
ag2691
ag2004
ag979
ag771
ag1943
ag2578
ag3148
ag1648
ag3538
ag789
ag2644
ag3122
ag704
ag1465
ag2031
ag255
ag3353
ag1725
ag2372
ag1017
ag2462
ag356
ag1152
ag2180
ag647
ag136
ag1915
ag3273
ag2051
ag2990
ag414
ag943
ag2304
ag2976
ag167
ag1666
ag2195
ag813
ag1113
ag2466
ag1299
ag906
ag826
ag104
ag3633
ag121
ag891
ag2525
ag3551
ag352
ag3626
ag408
ag2432
ag931
ag1520
ag540
ag1389
ag1792
ag374
ag2746
ag2968
ag1154
ag2728
ag725
ag262
ag353
ag1882
ag712
ag1932
ag1361
ag3249
ag2882
ag1037
ag1657
ag2107
ag2292
ag742
ag749
ag1588
ag1620
ag2138
ag2592
ag2702
ag2852
ag1967
ag44
ag1938
ag2572
ag3483
ag3414
ag981
ag1185
ag2275
ag3090
ag3356
ag243
ag1340
ag581
ag3405
ag3711
ag660
ag1129
ag2347
ag2974
ag3439
ag3598
ag278
ag2670
ag359
ag1842
ag1269
ag2394
ag1223
ag1883
ag992
ag2423
ag3269
ag349
ag1212
ag2726
ag3608
ag717
ag612
ag2614
ag2345
ag330
ag665
ag3237
ag2334
ag3252
ag1608
ag2021
ag2352
ag759
ag2381
ag3287
ag2431
ag1445
ag3024
ag1029
ag1092
ag2624
ag1184
ag1234
ag2277
ag402
ag1646
ag1867
ag3480
ag1969
ag2448
ag337
ag1904
ag2199
ag2594
ag3383
ag249
ag3588
ag417
ag1421
ag312
ag1828
ag2083
ag130
ag247
ag574
ag2349
ag2150
ag3413
ag3655
ag1300
ag1647
ag2288
ag1133
ag1357
ag2918
ag229
ag543
ag583
ag2823
ag3430
ag72
ag217
ag3146
ag1280
ag1591
ag1981
ag2111
ag3313
ag2535
ag1227
ag2286
ag1952
ag2492
ag684
ag411
ag1488
ag1679
ag2482
ag3450
ag3379
ag634
ag1581
ag958
ag1417
ag1272
ag1301
ag2395
ag754
ag1939
ag2562
ag1279
ag3477
ag422
ag926
ag1287
ag1374
ag2086
ag61
ag92
ag616
ag623
ag159
ag2224
ag2751
ag3019
ag550
ag2618
ag2871
ag3004
ag123
ag1727
ag2236
ag3112
ag3667
ag687
ag113
ag937
ag1794
ag2446
ag3083
ag538
ag1983
ag1235
ag1639
ag1038
ag3109
ag260
ag428
ag497
ag1139
ag2811
ag1612
ag1955
ag2179
ag2557
ag2967
ag658
ag793
ag3307
ag3357
ag3709
ag498
ag675
ag1249
ag2371
ag2434
ag2803
ag3454
ag2060
ag2454
ag2516
ag2528
ag2909
ag1719
ag29
ag1032
ag2547
ag2754
ag2952
ag3283
ag1962
ag1348
ag2688
ag3617
ag978
ag1759
ag290
ag2911
ag3115
ag3370
ag108
ag933
ag2522
ag2263
ag3303
ag1005
ag1095
ag3311
ag1884
ag2631
ag3271
ag1180
ag1802
ag1388
ag1494
ag1509
ag2270
ag1881
ag2874
ag3049
ag3210
ag150
ag681
ag711
ag3305
ag2049
ag1490
ag2376
ag2483
ag3026
ag3694
ag354
ag639
ag1072
ag1073
ag2709
ag1485
ag1700
ag1754
ag2678
ag126
ag252
ag1439
ag2738
ag2103
ag2328
ag3118
ag3033
ag3704
ag124
ag228
ag305
ag377
ag488
ag671
ag1030
ag1450
ag1614
ag1649
ag2044
ag2095
ag2362
ag3242
ag2575
ag2787
ag3395
ag3646
ag3664
ag661
ag843
ag178
ag1043
ag2229
ag2453
ag2607
ag3228
ag190
ag916
ag2123
ag1074
ag1496
ag2464
ag1688
ag806
ag2076
ag2401
ag1687
ag3537
ag588
ag636
ag865
ag880
ag1150
ag1437
ag1761
ag2269
ag1922
ag2609
ag3236
ag3319
ag173
ag1332
ag718
ag885
ag1156
ag2019
ag131
ag900
ag2467
ag431
ag1164
ag3380
ag3647
ag1473
ag1551
ag1740
ag2343
ag2632
ag1542
ag3071
ag48
ag484
ag564
ag1320
ag1636
ag2012
ag2584
ag2847
ag2902
ag238
ag1973
ag788
ag2457
ag2949
ag2975
ag3072
ag3267
ag1678
ag3618
ag287
ag767
ag903
ag1114
ag1835
ag1930
ag2527
ag2278
ag2793
ag3037
ag3343
ag3344
ag34
ag55
ag1000
ag1845
ag2298
ag310
ag2653
ag3165
ag3172
ag656
ag1447
ag267
ag2478
ag1097
ag620
ag631
ag1221
ag833
ag841
ag3656
ag1314
ag1402
ag1471
ag1906
ag1926
ag1998
ag2129
ag2244
ag2926
ag2721
ag3180
ag3188
ag3214
ag3238
ag2419
ag3416
ag3481
ag860
ag3522
ag3642
ag3706
ag3156
ag388
ag590
ag836
ag1446
ag1351
ag1899
ag2667
ag2829
ag2923
ag3366
ag1274
ag1433
ag2468
ag2988
ag730
ag879
ag1860
ag2089
ag1632
ag404
ag2669
ag2769
ag3150
ag3385
ag3669
ag90
ag43
ag265
ag2515
ag610
ag695
ag1989
ag965
ag3176
ag225
ag1192
ag2075
ag1408
ag1584
ag2750
ag2530
ag2744
ag2820
ag3602
ag3278
ag3493
ag549
ag618
ag949
ag1791
ag2038
ag2580
ag421
ag710
ag1112
ag1181
ag1728
ag2619
ag3686
ag172
ag436
ag1440
ag1134
ag1822
ag1978
ag2219
ag1100
ag2428
ag2437
ag2799
ag3121
ag3586
ag721
ag1218
ag1382
ag1642
ag1658
ag1876
ag2090
ag2251
ag2451
ag2524
ag2685
ag2791
ag2964
ag3544
ag423
ag439
ag890
ag1131
ag2039
ag1255
ag1346
ag1616
ag1066
ag2768
ag2932
ag3525
ag3535
ag3604
ag145
ag200
ag3317
ag350
ag2305
ag592
ag812
ag930
ag1007
ag1065
ag1198
ag1282
ag1435
ag3247
ag1609
ag1808
ag1919
ag2120
ag2254
ag2280
ag383
ag2548
ag2621
ag2778
ag2929
ag2953
ag3517
ag3572
ag363
ag2526
ag699
ag1335
ag1349
ag1767
ag1843
ag1848
ag1916
ag2326
ag2360
ag2402
ag41
ag3081
ag503
ag566
ag828
ag1247
ag1354
ag1814
ag2450
ag2956
ag2954
ag193
ag523
ag798
ag959
ag368
ag365
ag2088
ag2109
ag2117
ag2303
ag2449
ag2481
ag2531
ag2712
ag1682
ag3304
ag3346
ag3661
ag195
ag1359
ag1573
ag1622
ag1777
ag1816
ag1829
ag3124
ag3649
ag3398
ag3400
ag3448
ag220
ag2533
ag420
ag1111
ag1765
ag1901
ag2496
ag2720
ag2790
ag2913
ag3568
ag3337
ag3369
ag3435
ag248
ag335
ag1406
ag855
ag973
ag1004
ag1481
ag1677
ag1541
ag3508
ag2579
ag2285
ag2739
ag2989
ag3277
ag1166
ag3573
ag87
ag251
ag1710
ag2160
ag2514
ag2924
ag545
ag1162
ag862
ag1375
ag1483
ag280
ag1633
ag940
ag2174
ag2327
ag2341
ag2780
ag3487
ag3561
ag33
ag1245
ag1099
ag3142
ag462
ag474
ag594
ag608
ag680
ag713
ag714
ag912
ag1008
ag1115
ag1420
ag1170
ag1210
ag1338
ag1342
ag1419
ag1431
ag1815
ag1851
ag1961
ag2009
ag2137
ag2175
ag2207
ag2302
ag2887
ag2435
ag2463
ag448
ag11
ag3137
ag2782
ag2844
ag2869
ag2883
ag3001
ag3434
ag3505
ag3703
ag2486
ag236
ag1385
ag1519
ag2194
ag2966
ag3042
ag3061
ag3086
ag3698
ag911
ag3322
ag3350
ag3621
ag3637
ag253
ag288
ag332
ag362
ag513
ag3203
ag746
ag910
ag1118
ag1825
ag1999
ag2173
ag2596
ag2605
ag2914
ag3057
ag3110
ag3294
ag3524
ag28
ag84
ag196
ag334
ag902
ag1026
ag1231
ag1352
ag432
ag2742
ag2749
ag3585
ag3443
ag3571
ag99
ag309
ag753
ag765
ag1458
ag1782
ag2391
ag2407
ag2438
ag2905
ag2564
ag2628
ag3144
ag3497
ag3549
ag2499
ag1776
ag528
ag650
ag734
ag1009
ag1068
ag1146
ag1512
ag1517
ag1524
ag1630
ag3406
ag1871
ag2072
ag2310
ag2319
ag2646
ag2663
ag2880
ag51
ag3490
ag3610
ag3639
ag3668
ag54
ag106
ag115
ag258
ag282
ag512
ag702
ag969
ag1155
ag1188
ag1240
ag2734
ag2092
ag2098
ag2188
ag1582
ag1533
ag1903
ag2055
ag2330
ag2489
ag476
ag2827
ag491
ag3184
ag3282
ag3323
ag3488
ag3502
ag3614
ag128
ag141
ag355
ag469
ag579
ag668
ag769
ag888
ag2890
ag1120
ag2729
ag1498
ag1702
ag2178
ag2192
ag2239
ag2294
ag2418
ag2544
ag2958
ag3035
ag3120
ag3387
ag3578
ag78
ag1242
ag2504
ag386
ag1306
ag1929
ag598
ag657
ag784
ag785
ag818
ag953
ag97
ag1358
ag1606
ag1703
ag1892
ag1937
ag1945
ag1996
ag2020
ag2023
ag2201
ag2321
ag2344
ag2351
ag2503
ag2511
ag2546
ag2561
ag2884
ag2987
ag1117
ag3022
ag3106
ag3143
ag3218
ag2398
ag1787
ag3591
ag3653
ag3675
ag271
ag295
ag319
ag449
ag459
ag477
ag496
ag837
ag1758
ag1936
ag2142
ag2212
ag2748
ag270
ag3222
ag3325
ag3673
ag3713
ag433
ag442
ag526
ag688
ag763
ag856
ag1137
ag1248
ag1449
ag1486
ag2320
ag2378
ag3101
ag3333
ag3453
ag3464
ag3511
ag3514
ag3577
ag1108
ag304
ag2722
ag584
ag706
ag821
ag849
ag2666
ag266
ag2091
ag1927
ag1942
ag1954
ag1629
ag2426
ag1654
ag2682
ag2899
ag3050
ag3058
ag3185
ag3292
ag3308
ag3378
ag3421
ag3451
ag3463
ag3521
ag3539
ag3554
ag1793
ag144
ag181
ag219
ag323
ag327
ag506
ag1083
ag822
ag1178
ag1839
ag1872
ag1900
ag2047
ag2074
ag2127
ag2165
ag2185
ag2216
ag2355
ag2701
ag2760
ag3009
ag3347
ag3206
ag3211
ag3341
ag3625
ag3631
ag3300
ag3684
ag157
ag176
ag227
ag405
ag602
ag667
ag795
ag896
ag945
ag1477
ag1641
ag2737
ag1821
ag2005
ag2022
ag2279
ag2591
ag2839
ag3139
ag3284
ag68
ag73
ag485
ag138
ag3041
ag1283
ag384
ag466
ag2725
ag551
ag755
ag1062
ag1104
ag1438
ag1469
ag1552
ag1561
ag1593
ag1501
ag1514
ag1812
ag1865
ag1887
ag1928
ag591
ag1409
ag2241
ag2332
ag2411
ag2686
ag2761
ag2915
ag3170
ag3192
ag3207
ag3234
ag2389
ag3244
ag3260
ag1158
ag3276
ag3309
ag3389
ag3432
ag3473
ag3640
ag32
ag199
ag208
ag222
ag241
ag250
ag281
ag169
ag315
ag348
ag441
ag482
ag515
ag1944
ag736
ag764
ag796
ag924
ag955
ag1681
ag2642
ag819
ag2674
ag2045
ag1197
ag1199
ag1215
ag1216
ag1239
ag2693
ag1310
ag1318
ag1331
ag1339
ag1372
ag1502
ag1607
ag1637
ag1643
ag1650
ag1672
ag2491
ag1511
ag917
ag1779
ag1827
ag324
ag1913
ag1921
ag1994
ag2001
ag2008
ag2029
ag1570
ag1572
ag2125
ag2149
ag2161
ag2176
ag2209
ag2273
ag2382
ag2447
ag1640
ag2476
ag2903
ag2518
ag2519
ag2587
ag2602
ag2647
ag2759
ag2779
ag2795
ag2854
ag2895
ag1722
ag3023
ag3044
ag3128
ag3168
ag3219
ag3275
ag3345
ag3354
ag3441
ag3484
ag3555
ag3594
ag3599
ag3650
ag3674
ag30
ag511
ag532
ag562
ag567
ag596
ag609
ag632
ag669
ag815
ag923
ag1021
ag1087
ag1194
ag1220
ag1273
ag1766
ag1418
ag1448
ag1545
ag1709
ag1745
ag1748
ag1753
ag2050
ag372
ag2313
ag2350
ag2455
ag2497
ag2736
ag2775
ag2904
ag105
ag3438
ag3097
ag558
ag2413
ag3386
ag3393
ag3471
ag3425
ag3570
ag3600
ag3662
ag3687
ag86
ag289
ag336
ag415
ag82
ag437
ag493
ag514
ag586
ag637
ag1343
ag800
ag853
ag1058
ag1101
ag1171
ag1201
ag1336
ag848
ag1586
ag470
ag2122
ag2164
ag2299
ag2200
ag2611
ag2641
ag2661
ag2719
ag2732
ag2888
ag2995
ag3012
ag3223
ag3232
ag3312
ag3315
ag3457
ag57
ag205
ag215
ag380
ag401
ag737
ag745
ag779
ag972
ag976
ag3209
ag1034
ag1039
ag1109
ag1207
ag1263
ag1362
ag1365
ag1574
ag1691
ag1789
ag1935
ag1958
ag777
ag1222
ag1241
ag2053
ag2169
ag2287
ag2429
ag110
ag2521
ag2318
ag2848
ag2993
ag3056
ag3191
ag3286
ag3352
ag3358
ag444
ag3659
ag390
ag2830
ag783
ag1055
ag1063
ag1557
ag1567
ag3419
ag1933
ag1965
ag1970
ag2104
ag2245
ag2585
ag2860
ag2997
ag3080
ag3348
ag36
ag155
ag207
ag213
ag232
ag261
ag329
ag340
ag1175
ag451
ag479
ag715
ag877
ag775
ag1013
ag1025
ag1110
ag1130
ag1145
ag1211
ag1285
ag1292
ag1410
ag1455
ag1472
ag1665
ag1669
ag1671
ag1720
ag1788
ag1857
ag1873
ag1889
ag1923
ag3431
ag2070
ag2115
ag1187
ag2220
ag2595
ag2664
ag1522
ag2757
ag2781
ag2788
ag2800
ag1696
ag2867
ag2868
ag2494
ag2916
ag2917
ag2921
ag2931
ag2936
ag2940
ag2312
ag3155
ag3217
ag3221
ag1161
ag3291
ag2403
ag3330
ag2405
ag3553
ag3583
ag3597
ag69
ag71
ag98
ag109
ag587
ag135
ag2460
ag152
ag158
ag2495
ag211
ag3038
ag275
ag298
ag600
ag824
ag341
ag360
ag2132
ag385
ag2537
ag2484
ag457
ag460
ag464
ag1081
ag2733
ag478
ag480
ag3006
ag510
ag521
ag542
ag565
ag577
ag3548
ag2571
ag621
ag666
ag283
ag691
ag703
ag2900
ag726
ag3166
ag762
ag780
ag791
ag1979
ag905
ag915
ag918
ag174
ag938
ag2406
ag1011
ag1014
ag1018
ag1057
ag1076
ag1143
ag1173
ag1232
ag118
ag1250
ag1252
ag1268
ag1270
ag1275
ag3310
ag1307
ag1325
ag1350
ag851
ag1373
ag1399
ag1416
ag1453
ag1480
ag1537
ag2469
ag1487
ag1594
ag1595
ag1597
ag1600
ag1602
ag1624
ag1627
ag1628
ag2396
ag1699
ag1730
ag1743
ag2777
ag1786
ag1801
ag3429
ag1809
ag1147
ag1826
ag1863
ag1879
ag2066
ag2131
ag2144
ag2151
ag2152
ag2154
ag2210
ag2222
ag2281
ag2559
ag2289
ag2293
ag2333
ag2356
ag2808
ag2365
ag3707
ag2393
ag2399
ag2513
ag2541
ag3700
ag2574
ag2583
ag2634
ag2676
ag2700
ag2711
ag1071
ag83
ag1523
ag1086
ag2836
ag2837
ag2363
ag2925
ag2930
ag2335
ag2948
ag2950
ag2978
ag2353
ag3031
ag1122
ag939
ag3129
ag3151
ag3162
ag3193
ag3007
ag3216
ag3225
ag3256
ag3258
ag2470
ag3351
ag3365
ag3367
ag2384
ag3388
ag3390
ag3392
ag3404
ag3418
ag3424
ag3475
ag3485
ag3498
ag3504
ag3507
ag3509
ag3541
ag3545
ag3566
ag371
ag3576
ag3589
ag3593
ag3609
ag3611
ag3619
ag3634
ag3641
ag3666
ag3478
ag3708
ag3712
ag455
ag101
ag956
ag1053
ag799
ag2361
ag1991
ag2037
ag2400
ag2648
ag3046
ag3047
ag3103
ag3579
ag40
ag59
ag966
ag206
ag277
ag285
ag297
ag685
ag434
ag481
ag508
ag1322
ag525
ag1555
ag638
ag739
ag778
ag832
ag1381
ag961
ag1024
ag3053
ag3446
ag1258
ag1347
ag1464
ag1590
ag1626
ag1712
ag1770
ag325
ag1946
ag367
ag1566
ag2126
ag2141
ag2155
ag2193
ag2623
ag2295
ag2306
ag2816
ag2385
ag2414
ag2539
ag2540
ag2550
ag3178
ag2600
ag2604
ag2690
ag2706
ag3028
ag2810
ag2813
ag3073
ag3127
ag1917
ag3182
ag3215
ag3230
ag3306
ag3329
ag1844
ag3501
ag3533
ag3567
ag3648
ag708
ag3685
ag81
ag125
ag1470
ag66
ag378
ag452
ag2806
ag1230
ag617
ag622
ag761
ag1061
ag807
ag1080
ag846
ag927
ag929
ag3034
ag994
ag995
ag1006
ag3326
ag1035
ag1059
ag1089
ag1229
ag1294
ag1457
ag1479
ag1756
ag1834
ag1849
ag1894
ag1907
ag1975
ag2015
ag2143
ag2422
ag2773
ag2853
ag1674
ag2981
ag3003
ag3054
ag1124
ag3075
ag3091
ag3094
ag536
ag3125
ag3302
ag3229
ag839
ag3318
ag3374
ag3415
ag3462
ag3529
ag3603
ag70
ag214
ag240
ag264
ag379
ag403
ag409
ag94
ag375
ag533
ag539
ag548
ag559
ag593
ag731
ag3692
ag898
ag1003
ag1075
ag1088
ag1206
ag1208
ag1213
ag2057
ag1366
ag1392
ag1427
ag1443
ag1529
ag1898
ag1603
ag302
ag1763
ag1896
ag1559
ag2018
ag2247
ag2267
ag645
ag2408
ag438
ag2554
ag3336
ag1127
ag2889
ag2965
ag3194
ag3213
ag3361
ag3527
ag3644
ag37
ag39
ag45
ag56
ag76
ag3025
ag1238
ag531
ag117
ag137
ag3607
ag184
ag201
ag234
ag242
ag273
ag274
ag284
ag679
ag294
ag343
ag2062
ag373
ag394
ag395
ag410
ag416
ag419
ag430
ag486
ag494
ag502
ag561
ag578
ag582
ag595
ag603
ag629
ag643
ag651
ag2581
ag653
ag690
ag697
ag727
ag140
ag747
ag805
ag808
ag809
ag817
ag465
ag845
ag1344
ag852
ag858
ag868
ag872
ag887
ag904
ag932
ag947
ag980
ag1002
ag1019
ag1046
ag1047
ag1052
ag2656
ag1078
ag1079
ag1090
ag1093
ag1948
ag1105
ag1167
ag1186
ag1189
ag1200
ag3680
ag756
ag1244
ag1257
ag443
ag1264
ag1290
ag1305
ag2970
ag1334
ag1364
ag1369
ag1384
ag1544
ag1387
ag1429
ag3565
ag1442
ag1271
ag1461
ag1466
ag2697
ag1482
ag1505
ag1530
ag1877
ag1563
ag1596
ag1611
ag1621
ag1653
ag1656
ag2121
ag1668
ag435
ag1698
ag1707
ag2704
ag1724
ag1726
ag1729
ag1735
ag1741
ag1744
ag1747
ag1781
ag3368
ag1807
ag1831
ag1833
ag1836
ag1838
ag1841
ag1855
ag1880
ag1885
ag1888
ag1890
ag1918
ag951
ag1931
ag1953
ag3402
ag1976
ag1984
ag2006
ag2036
ag2041
ag2043
ag2046
ag2061
ag2064
ag2079
ag1484
ag2100
ag2116
ag2157
ag2910
ag2205
ag2184
ag2191
ag2202
ag2171
ag2223
ag2228
ag1772
ag2233
ag2235
ag2242
ag2249
ag2266
ag2274
ag91
ag2307
ag2308
ag1676
ag2329
ag2331
ag412
ag2386
ag3376
ag2439
ag2896
ag148
ag180
ag2529
ag2276
ag2635
ag2637
ag2639
ag2643
ag2651
ag2657
ag2680
ag2683
ag2684
ag2687
ag2943
ag1526
ag2785
ag2792
ag2814
ag2824
ag2828
ag2841
ag2846
ag2849
ag2864
ag1324
ag2908
ag2912
ag3584
ag2972
ag2992
ag3010
ag3015
ag3021
ag2532
ag3040
ag3043
ag3052
ag3062
ag3065
ag3066
ag3076
ag3082
ag3088
ag3089
ag3092
ag3104
ag3105
ag3117
ag3169
ag2375
ag3189
ag3198
ag3201
ag2258
ag3296
ag3297
ag3327
ag3328
ag3332
ag2488
ag3342
ag3375
ag3417
ag2000
ag3447
ag1805
ag3469
ag3482
ag3489
ag3492
ag3510
ag3520
ag3530
ag3532
ag3542
ag3552
ag3563
ag1015
ag3592
ag3615
ag3624
ag3627
ag3636
ag450
ag3671
ag3691
ag132
ag74
ag127
ag863
ag187
ag245
ag339
ag397
ag2555
ag619
ag740
ag1195
ag850
ag3243
ag962
ag983
ag1027
ag1056
ag2708
ag3014
ag1179
ag1183
ag1214
ag1243
ag1266
ag1328
ag1426
ag1618
ag1645
ag1680
ag1752
ag1810
ag1823
ag1862
ag1960
ag1988
ag2056
ag1558
ag2099
ag2148
ag2198
ag2206
ag2218
ag2230
ag2232
ag2265
ag2290
ag2342
ag2471
ag2620
ag2659
ag560
ag1546
ag2764
ag2821
ag2919
ag2941
ag3678
ag2999
ag3013
ag3068
ag3069
ag3107
ag3372
ag3399
ag3423
ag3444
ag3459
ag3467
ag3470
ag3590
ag3630
ag60
ag218
ag723
ag782
ag794
ag952
ag1082
ag1565
ag1732
ag2017
ag1623
ag2336
ag2358
ag2383
ag321
ag2633
ag2994
ag1394
ag876
ag3377
ag1959
ag3433
ag47
ag53
ag79
ag85
ag1605
ag96
ag182
ag1891
ag1508
ag3145
ag307
ag313
ag351
ag393
ag2367
ag440
ag468
ag554
ag570
ag611
ag663
ag664
ag748
ag820
ag957
ag971
ag1091
ag1102
ag1293
ag1309
ag1363
ag1376
ag1432
ag2857
ag1717
ag1619
ag1685
ag3154
ag1824
ag1951
ag1997
ag2007
ag2054
ag2190
ag2231
ag3476
ag2246
ag894
ag2357
ag2433
ag2477
ag2501
ag555
ag2586
ag2626
ag1353
ag1371
ag2969
ag2983
ag263
ag3427
ag3456
ag3461
ag3516
ag3638
ag3495
ag3702
ag46
ag58
ag89
ag640
ag95
ag516
ag111
ag878
ag151
ag2493
ag156
ag162
ag164
ag659
ag186
ag189
ag198
ag202
ag209
ag210
ag1866
ag2093
ag678
ag1403
ag326
ag345
ag361
ag364
ag1785
ag387
ag392
ag418
ag2153
ag473
ag490
ag501
ag505
ag1326
ag544
ag624
ag625
ag627
ag633
ag649
ag654
ag160
ag1820
ag673
ag674
ag677
ag291
ag293
ag3557
ag719
ag729
ag733
ag744
ag996
ag768
ag786
ag801
ag803
ag1174
ag854
ag870
ag884
ag886
ag892
ag907
ag909
ag913
ag914
ag922
ag925
ag1875
ag941
ag963
ag982
ag3426
ag987
ag997
ag2645
ag1016
ag1475
ag1050
ag1051
ag1054
ag1060
ag1070
ag2731
ag1085
ag2268
ag1098
ag1116
ag3063
ag1126
ag3199
ag3274
ag1159
ag3491
ag1203
ag1226
ag389
ag1260
ag1276
ag296
ag328
ag1302
ag1303
ag1308
ag1313
ag3466
ag1323
ag1337
ag686
ag1370
ag989
ag1378
ag867
ag1395
ag1396
ag1103
ag1428
ag1434
ag1444
ag1454
ag1459
ag1463
ag1510
ag874
ag1749
ag1515
ag1525
ag1547
ag1556
ag696
ag1564
ag2238
ag2032
ag1569
ag1598
ag1604
ag1610
ag1631
ag1683
ag1634
ag1652
ag1673
ag1675
ag2316
ag2740
ag1701
ag1716
ag1718
ag154
ag534
ag1757
ag1764
ag3263
ag1774
ag1775
ag1780
ag3394
ag1790
ag1796
ag1803
ag1806
ag1811
ag1830
ag1856
ag1837
ag934
ag381
ag1858
ag1861
ag1878
ag2681
ag1893
ag1897
ag314
ag1912
ag483
ag1940
ag1947
ag1950
ag1956
ag1957
ag873
ag1964
ag1966
ag1977
ag1980
ag1982
ag1986
ag2002
ag2016
ag2035
ag2065
ag936
ag2078
ag2085
ag1503
ag2114
ag1664
ag2197
ag2172
ag2186
ag2025
ag2214
ag2215
ag2240
ag2248
ag2255
ag2256
ag2257
ag2259
ag2260
ag2271
ag1001
ag2317
ag2322
ag2377
ag1237
ag2412
ag2416
ag2886
ag2452
ag2459
ag2472
ag2474
ag2479
ag2490
ag2003
ag2502
ag2508
ag2510
ag2520
ag413
ag2689
ag2543
ag2545
ag2553
ag2569
ag2573
ag1041
ag2577
ag652
ag2588
ag2599
ag2601
ag1204
ag2616
ag2617
ag2629
ag1067
ag2658
ag2662
ag2665
ag2695
ag2696
ag2971
ag2703
ag2705
ag787
ag2714
ag2715
ag2716
ag2724
ag811
ag509
ag2743
ag2762
ag2767
ag2784
ag2786
ag2789
ag2812
ag2817
ag2825
ag2831
ag2833
ag2856
ag2865
ag2879
ag2894
ag2901
ag3623
ag2922
ag2927
ag2935
ag2937
ag2955
ag2962
ag3595
ag2979
ag2980
ag2982
ag2991
ag3002
ag3187
ag3141
ag3011
ag3032
ag3039
ag3045
ag3401
ag3055
ag3059
ag3407
ag3070
ag3077
ag3084
ag3099
ag3108
ag3116
ag3119
ag3130
ag3136
ag3140
ag316
ag3152
ag3181
ag3183
ag3190
ag3195
ag3204
ag3205
ag3245
ag3246
ag3250
ag3251
ag3257
ag3268
ag3272
ag3280
ag3293
ag3295
ag1277
ag3321
ag3334
ag3349
ag3355
ag3359
ag3363
ag3364
ag3373
ag3396
ag1798
ag3452
ag3455
ag1316
ag3472
ag2243
ag2442
ag2340
ag3494
ag3496
ag3499
ag3506
ag3528
ag3547
ag3564
ag3575
ag3314
ag3645
ag3658
ag3660
ag3663
ag3688
ag179
ag3683
ag589
ag628
ag648
ag357
ag743
ag844
ag1430
ag1140
ag102
ag1492
ag1601
ag1684
ag2118
ag2187
ag3289
ag3531
ag2851
ag507
ag3163
ag3556
ag231
ag107
ag194
ag391
ag445
ag471
ag475
ag504
ag527
ag530
ag601
ag1424
ag700
ag701
ag720
ag773
ag797
ag2505
ag889
ag986
ag993
ag2576
ag1044
ag1107
ag1160
ag3290
ag1205
ag1404
ag1412
ag1413
ag1415
ag1489
ag1491
ag1535
ag869
ag1738
ag2227
ag1832
ag1874
ag1886
ag1905
ag1995
ag2087
ag320
ag2253
ag2261
ag2264
ag2421
ag2441
ag3710
ag2506
ag2536
ag2590
ag2603
ag2608
ag2679
ag62
ag2933
ag2755
ag3060
ag3126
ag1478
ag3512
ag3560
ag3582
ag3657
ag3689
ag31
ag38
ag49
ag50
ag1941
ag52
ag64
ag65
ag75
ag93
ag100
ag112
ag114
ag119
ag122
ag129
ag133
ag134
ag139
ag146
ag147
ag149
ag168
ag1148
ag177
ag970
ag197
ag203
ag212
ag235
ag237
ag239
ag246
ag268
ag279
ag1548
ag2855
ag303
ag2067
ag317
ag318
ag1635
ag331
ag3420
ag358
ag366
ag369
ag382
ag399
ag3550
ag400
ag406
ag424
ag2589
ag1321
ag454
ag456
ag461
ag1925
ag495
ag1813
ag838
ag518
ag519
ag524
ag1400
ag3096
ag553
ag3235
ag573
ag575
ag580
ag605
ag626
ag630
ag635
ag642
ag644
ag1697
ag672
ag676
ag682
ag2597
ag692
ag693
ag694
ag522
ag709
ag722
ag724
ag728
ag760
ag781
ag790
ag804
ag810
ag816
ag825
ag827
ag830
ag831
ag834
ag2136
ag840
ag842
ag847
ag3412
ag861
ag864
ag866
ag1383
ag882
ag2156
ag875
ag881
ag883
ag895
ag2119
ag928
ag942
ag946
ag960
ag964
ag967
ag974
ag1393
ag977
ag185
ag1377
ag991
ag2283
ag1010
ag1012
ag1028
ag1042
ag1045
ag2794
ag2801
ag1784
ag1106
ag3279
ag1123
ag1135
ag1149
ag1176
ag1177
ag1219
ag1228
ag1233
ag1253
ag1265
ag1281
ag1286
ag1291
ag1296
ag1304
ag1315
ag2189
ag517
ag1356
ag1360
ag1367
ag871
ag2135
ag975
ag1397
ag1398
ag1405
ag2710
ag1528
ag1411
ag1452
ag1462
ag1467
ag1500
ag1651
ag1655
ag1521
ag1536
ag1538
ag1549
ag1550
ag1553
ag1554
ag1568
ag204
ag1576
ag1578
ag1585
ag1589
ag1599
ag1990
ag1644
ag2563
ag1742
ag1662
ag1690
ag1693
ag1695
ag1704
ag1705
ag1711
ag1713
ag1715
ag1737
ag1739
ag1751
ag1760
ag1768
ag1795
ag1799
ag1804
ag3382
ag1819
ag1850
ag1852
ag1853
ag1854
ag2723
ag1022
ag1868
ag1910
ag1911
ag1914
ag489
ag1934
ag3005
ag1971
ag1972
ag1974
ag2404
ag3016
ag2014
ag1493
ag2026
ag1157
ag1190
ag2058
ag1534
ag3442
ag2097
ag2101
ag2106
ag2110
ag2113
ag472
ag2807
ag2140
ag2145
ag2146
ag2162
ag2163
ag2170
ag2177
ag2182
ag2196
ag2204
ag2211
ag2213
ag2250
ag2272
ag2570
ag2291
ag2300
ag2311
ag2315
ag2323
ag2338
ag2850
ag2339
ag2364
ag2878
ag2374
ag3177
ag2379
ag2390
ag3613
ag2417
ag2427
ag2436
ag2443
ag2456
ag2042
ag2465
ag1456
ag153
ag2523
ag2961
ag2542
ag2551
ag1040
ag606
ag2582
ag2593
ag1436
ag2598
ag2610
ag2612
ag2613
ag2625
ag2627
ag2638
ag2654
ag2672
ag2675
ag2692
ag2707
ag192
ag2713
ag2314
ag2730
ag2745
ag2752
ag2763
ag2766
ag2771
ag2774
ag2776
ag1771
ag2797
ag2815
ag2818
ag1224
ag2835
ag2843
ag2168
ag1706
ag2858
ag2859
ag2863
ag2875
ag2420
ag2892
ag2898
ag950
ag2512
ag2907
ag2920
ag2944
ag2945
ag2951
ag1191
ag2959
ag2960
ag2876
ag2942
ag3601
ag3000
ag3017
ag3018
ag3029
ag3074
ag3079
ag919
ag3102
ag3113
ag300
ag3160
ag3173
ag3174
ag3175
ag766
ag3179
ag3196
ag3208
ag3212
ag3226
ag3227
ag3241
ag161
ag3253
ag3255
ag3261
ag3171
ag3266
ag3281
ag2112
ag3324
ag1818
ag3362
ag3371
ag3381
ag3285
ag3403
ag2133
ag3408
ag3440
ag3445
ag3458
ag3460
ag3474
ag3486
ag3500
ag1407
ag3515
ag3519
ag2549
ag3546
ag2717
ag3559
ag802
ag3587
ag2977
ag2998
ag3605
ag3606
ag3628
ag3629
ag3635
ag3643
ag3536
ag3690
ag3695
ag3696
ag3699
ag3701
ag1414
ag63
ag2024
ag2366
ag774
ag814
ag948
ag3320
ag1341
ag1380
ag1391
ag1451
ag585
ag1660
ag1755
ag1909
ag3436
ag2077
ag2084
ag2221
ag2225
ag2027
ag2296
ag2309
ag1587
ag2388
ag3574
ag2473
ag2606
ag2622
ag2636
ag2861
ag2870
ag2873
ag3098
ag3132
ag3147
ag3167
ag3231
ag2028
ag88
ag3654
ag3518
ag35
ag42
ag306
ag67
ag77
ag80
ag758
ag116
ag120
ag142
ag143
ag2986
ag163
ag166
ag170
ag3679
ag175
ag191
ag3596
ag230
ag254
ag256
ag257
ag599
ag292
ag301
ag311
ag322
ag333
ag338
ag344
ag346
ag370
ag2996
ag398
ag425
ag426
ag427
ag429
ag2509
ag1262
ag453
ag458
ag463
ag347
ag492
ag499
ag500
ag2906
ag520
ag537
ag541
ag546
ag547
ag552
ag563
ag568
ag576
ag597
ag604
ag2181
ag641
ag646
ag683
ag689
ag707
ag716
ag3270
ag735
ag750
ag752
ag770
ag772
ag988
ag792
ag3093
ag2237
ag1141
ag1202
ag835
ag857
ag529
ag2660
ag897
ag899
ag901
ag1746
ag935
ag944
ag2102
ag984
ag985
ag990
ag998
ag1023
ag1031
ag1033
ag1036
ag2568
ag1049
ag1064
ag1069
ag1077
ag1638
ag2834
ag1121
ag1125
ag1128
ag1144
ag920
ag1151
ag1168
ag1169
ag1172
ag487
ag1182
ag3465
ag1193
ag3262
ag1217
ag1236
ag1246
ag1251
ag1261
ag1267
ag1288
ag1289
ag1297
ag1298
ag1311
ag1312
ag1317
ag3138
ag1327
ag1329
ag1345
ag741
ag1368
ag1048
ag1379
ag1386
ag738
ag1422
ag1423
ag1425
ag1441
ag1476
ag1495
ag1497
ag1499
ag1504
ag1513
ag1516
ag1518
ag2080
ag1527
ag1531
ag1532
ag1153
ag165
ag1562
ag1575
ag1579
ag1613
ag1659
ag1661
ag1663
ag1667
ag1686
ag1689
ag1692
ag921
ag2217
ag1708
ag1714
ag1731
ag3051
ag1750
ag2346
ag1762
ag1769
ag2325
ag1817
ag954
ag1840
ag1859
ag1864
ag1869
ag1540
ag272
ag1908
ag1920
ag1963
ag1968
ag1992
ag2010
ag2011
ag2013
ag1330
ag2033
ag2040
ag2048
ag226
ag2063
ag2068
ag2069
ag2071
ag2081
ag2094
ag2105
ag2108
ag2128
ag1736
ag2134
ag2939
ag2139
ag2147
ag2615
ag2158
ag2159
ag2167
ag1259
ag2650
ag2124
ag2203
ag2208
ag2226
ag2252
ag2284
ag2337
ag2348
ag1474
ag2354
ag2359
ag1625
ag3164
ag2373
ag2387
ag2392
ag2397
ag3331
ag2409
ag2425
ag2430
ag2444
ag2445
ag2458
ag2461
ag2475
ag2440
ag2498
ag2500
ag259
ag269
ag2552
ag2556
ag2566
ag2567
ag2282
ag2630
ag999
ag1225
ag2649
ag2668
ag2677
ag2694
ag2699
ag1507
ag2741
ag2756
ag2758
ag2783
ag2796
ag2798
ag2804
ag2805
ag2809
ag2819
ag2826
ag2832
ag1694
ag2838
ag2840
ag2842
ag2862
ag2866
ag2872
ag751
ag2368
ag2881
ag3580
ag2891
ag2893
ag2934
ag2938
ag1734
ag2727
ag2946
ag2845
ag2963
ag2973
ag2984
ag2985
ag3259
ag3008
ag3020
ag3027
ag3030
ag467
ag3064
ag3067
ag3087
ag3100
ag3114
ag3131
ag3133
ag3134
ag3135
ag3149
ag3153
ag3622
ag3161
ag3186
ag607
ag3197
ag3200
ag3676
ag3233
ag3239
ag3240
ag3248
ag1583
ag2753
ag3298
ag3299
ag3301
ag2410
ag3316
ag3339
ag3360
ag3384
ag3391
ag1783
ag3410
ag2301
ag2718
ag3428
ag3437
ag3449
ag3468
ag3503
ag3513
ag2485
ag3523
ag3526
ag3534
ag3540
ag3543
ag2671
ag2770
ag3569
ag2885
ag3581
ag3612
ag3616
ag3620
ag1924
ag3632
ag3651
ag3652
ag3670
ag3672
ag3681
ag3682
ag3558
ag1592
ag3693
ag3697
atp3715
sS'pos'
p3716
((dp3717
VPRP$
p3718
I26
sVVBG
p3719
I15
sVVBD
p3720
I25
sV``
p3721
I36
sVVBN
p3722
I8
sVPOS
p3723
I33
sV''
p3724
I37
sg14
I1
sVVBP
p3725
I16
sVWDT
p3726
I21
sVJJ
p3727
I4
sVWP
p3728
I40
sVVBZ
p3729
I11
sVDT
p3730
I5
sVRP
p3731
I35
sVNN
p3732
I2
sVFW
p3733
I29
sg276
I7
sg614
I10
sVTO
p3734
I13
sVPRP
p3735
I18
sVRB
p3736
I14
sV-LRB-
p3737
I24
sg2698
I20
sVNNS
p3738
I6
sVNNP
p3739
I17
sVVB
p3740
I12
sVWRB
p3741
I30
sVCC
p3742
I9
sVLS
p3743
I27
sVPDT
p3744
I41
sVRBS
p3745
I34
sVRBR
p3746
I32
sVCD
p3747
I22
sVEX
p3748
I39
sVIN
p3749
I3
sVWP$
p3750
I38
sVMD
p3751
I23
sVNNPS
p3752
I43
sV-RRB-
p3753
I19
sVJJS
p3754
I31
sVJJR
p3755
I28
sVSYM
p3756
I42
sg19
I0
s(lp3757
g19
ag14
ag3732
ag3749
ag3727
ag3730
ag3738
ag276
ag3722
ag3742
ag614
ag3729
ag3740
ag3734
ag3736
ag3719
ag3725
ag3739
ag3735
ag3753
ag2698
ag3726
ag3747
ag3751
ag3737
ag3720
ag3718
ag3743
ag3755
ag3733
ag3741
ag3754
ag3746
ag3723
ag3745
ag3731
ag3721
ag3724
ag3750
ag3748
ag3728
ag3744
ag3756
ag3752
atp3758
s.